(dp0
S'dom_node_get_feature'
p1
I0
sS'sqlite_field_name'
p2
I0
sS'imagecreatefromxpm'
p3
I0
sS'numfmt_set_pattern '
p4
I0
sS'sleep'
p5
I1
sS'compact+'
p6
I1
sS'imap_rfc822_write_address'
p7
I0
sS'dba_fetch'
p8
I0
sS'ftp_size'
p9
I0
sS'mhash_get_block_size'
p10
I1
sS'mysqli_slave_query'
p11
I0
sS'array_flip'
p12
I1
sS'property_exists'
p13
I2
sS'eregi_replace'
p14
I3
sS'odbc_fetch_array'
p15
I0
sS'json_last_error'
p16
I0
sS'mysql_connect'
p17
I0
sS'imagefill'
p18
I0
sS'ibase_commit'
p19
I0
sS'tidy_get_root'
p20
I0
sS'localtime'
p21
I0
sS'strftime+'
p22
I1
sS'birdstep_result'
p23
I0
sS'xsl_xsltprocessor_transform_to_doc'
p24
I0
sS'smfi_setreply'
p25
I0
sS'mcrypt_get_key_size'
p26
I0
sS'apache_request_send_fd'
p27
I0
sS'oci_lob_copy'
p28
I0
sS'imagecreatefromxbm'
p29
I0
sS'strtotime'
p30
I0
sS'socket_listen'
p31
I0
sS'pg_lo_create'
p32
I0
sS'locale_get_all_variants'
p33
I0
sS'grapheme_extract'
p34
I0
sS'mysql_error'
p35
I0
sS'date_timestamp_set'
p36
I2
sS'imagecolorresolvealpha'
p37
I0
sS'oci_collection_size'
p38
I0
sS'fbsql_field_flags'
p39
I0
sS'str_repeat'
p40
I2
sS'mysqli_field_seek'
p41
I0
sS'substr_compare+'
p42
I3
sS'stream_context_set_option'
p43
I0
sS'mysqli_thread_safe'
p44
I0
sS'xmlwriter_open_uri'
p45
I1
sS'asin'
p46
I1
sS'imap_alerts'
p47
I0
sS'easter_days'
p48
I0
sS'urldecode'
p49
I1
sS'ftp_nb_put'
p50
I0
sS'gmp_neg'
p51
I0
sS'snmp2_walk'
p52
I0
sS'hash_hmac+'
p53
I3
sS'mysqli_stmt_close'
p54
I0
sS'imap_subscribe'
p55
I0
sS'call_user_method+'
p56
I2
sS'dom_document_adopt_node'
p57
I0
sS'birdstep_autocommit'
p58
I0
sS'numfmt_format '
p59
I0
sS'posix_kill'
p60
I0
sS'strtolower'
p61
I1
sS'variant_and'
p62
I0
sS'mssql_fetch_object'
p63
I0
sS'sqlite_escape_string'
p64
I0
sS'dbase_numrecords'
p65
I0
sS'in_array+'
p66
I2
sS'sqlite_has_prev'
p67
I0
sS'iconv_mime_encode'
p68
I0
sS'msgfmt_get_pattern '
p69
I0
sS'exif_read_data'
p70
I0
sS'ctype_graph'
p71
I1
sS'date_diff+'
p72
I2
sS'dom_node_is_default_namespace'
p73
I0
sS'posix_access'
p74
I0
sS'stream_bucket_prepend'
p75
I2
sS'debug_zval_dump+'
p76
I1
sS'preg_match+'
p77
I2
sS'ibase_pconnect'
p78
I0
sS'ldap_set_rebind_proc'
p79
I0
sS'odbc_result'
p80
I0
sS'recode_string'
p81
I0
sS'pg_send_prepare'
p82
I0
sS'ksort+'
p83
I1
sS'ftok'
p84
I2
sS'imagesetstyle'
p85
I0
sS'ldap_parse_result'
p86
I0
sS'imap_getacl'
p87
I0
sS'xml_get_error_code'
p88
I1
sS'imap_listmailbox'
p89
I0
sS'mktime'
p90
I0
sS'ldap_first_attribute'
p91
I0
sS'fbsql_list_fields'
p92
I0
sS'mcrypt_module_is_block_algorithm'
p93
I0
sS'imap_lsub'
p94
I0
sS'json_decode'
p95
I0
sS'confirm_extname_compiled'
p96
I0
sS'count+'
p97
I1
sS'image_type_to_mime_type'
p98
I1
sS'sybase_close'
p99
I0
sS'sybase_set_message_handler'
p100
I0
sS'apache_request_send_error_response'
p101
I0
sS'mcrypt_module_is_block_mode'
p102
I0
sS'ibase_timefmt'
p103
I0
sS'pg_send_query'
p104
I0
sS'odbc_error'
p105
I0
sS'str_split+'
p106
I1
sS'pdo_drivers'
p107
I0
sS'pg_fetch_row'
p108
I0
sS'openssl_dh_compute_key'
p109
I0
sS'mysqli_init'
p110
I0
sS'fbsql_set_characterset'
p111
I0
sS'dba_popen'
p112
I0
sS'sybase_unbuffered_query'
p113
I0
sS'imagettftext'
p114
I0
sS'collator_compare '
p115
I0
sS'array_diff_assoc+'
p116
I2
sS'session_encode'
p117
I0
sS'mysql_fetch_object'
p118
I0
sS'continuity_virtual'
p119
I0
sS'pg_field_prtlen'
p120
I0
sS'end'
p121
I1
sS'mysqli_warning_count'
p122
I0
sS'snmp3_set'
p123
I0
sS'gmp_fact'
p124
I0
sS'msql_select_db'
p125
I0
sS'rewind'
p126
I1
sS'posix_getuid'
p127
I0
sS'numfmt_set_symbol '
p128
I0
sS'mysqli_get_connection_stats'
p129
I0
sS'fbsql_fetch_field'
p130
I0
sS'pg_escape_bytea'
p131
I0
sS'msgfmt_create '
p132
I0
sS'stream_socket_get_name'
p133
I2
sS'openssl_public_decrypt'
p134
I0
sS'dom_text_split_text'
p135
I0
sS'dom_document_relaxNG_validate_file'
p136
I0
sS'resourcebundle_get_error_code '
p137
I0
sS'mcrypt_module_close'
p138
I0
sS'smfi_chgheader'
p139
I0
sS'array_multisort+'
p140
I1
sS'mcrypt_module_get_algo_block_size'
p141
I0
sS'sybase_get_last_message'
p142
I0
sS'oci_lob_tell'
p143
I0
sS'curl_error'
p144
I0
sS'mssql_result'
p145
I0
sS'ibase_execute'
p146
I0
sS'mssql_query'
p147
I0
sS'openssl_digest'
p148
I0
sS'strtoupper'
p149
I1
sS'litespeed_request_headers'
p150
I0
sS'snmp3_walk'
p151
I0
sS'fnmatch+'
p152
I2
sS'socket_create'
p153
I0
sS'bzerror'
p154
I0
sS'dbase_get_record'
p155
I0
sS'gmp_div_q'
p156
I0
sS'gmp_div_r'
p157
I0
sS'set_magic_quotes_runtime'
p158
I1
sS'msql_list_fields'
p159
I0
sS'filter_id'
p160
I1
sS'sqlite_open'
p161
I0
sS'oci_fetch_object'
p162
I0
sS'msql_connect'
p163
I0
sS'sqlite2_create_function'
p164
I0
sS'curl_close'
p165
I0
sS'fdf_get_attachment'
p166
I0
sS'ftp_nb_fget'
p167
I0
sS'datefmt_format '
p168
I0
sS'sqlite_array_query'
p169
I0
sS'imap_sort'
p170
I0
sS'array_replace_recursive+'
p171
I1
sS'mysql_get_host_info'
p172
I0
sS'ctype_lower'
p173
I1
sS'nl2br+'
p174
I1
sS'imagefilledarc'
p175
I0
sS'array_rand+'
p176
I1
sS'hash+'
p177
I2
sS'user_filter_nop'
p178
I0
sS'stream_socket_server+'
p179
I1
sS'array_diff+'
p180
I2
sS'openssl_csr_export_to_file'
p181
I0
sS'xmlwriter_write_comment'
p182
I2
sS'imagegd'
p183
I0
sS'ldap_sort'
p184
I0
sS'reset'
p185
I1
sS'imagedestroy'
p186
I0
sS'array_intersect+'
p187
I2
sS'date_interval_create_from_date_string'
p188
I1
sS'mcrypt_enc_get_algorithms_name'
p189
I0
sS'mysqli_info'
p190
I0
sS'ldap_parse_reference'
p191
I0
sS'ftp_exec'
p192
I0
sS'pspell_add_to_session'
p193
I0
sS'apache_request_mtime'
p194
I0
sS'idn_to_ascii'
p195
I0
sS'snmp_set_valueretrieval'
p196
I0
sS'ftp_login'
p197
I0
sS'sqlite_create_function'
p198
I0
sS'smfi_addrcpt'
p199
I0
sS'imageloadfont'
p200
I0
sS'sqlite_udf_encode_binary'
p201
I0
sS'tidy_parse_string'
p202
I0
sS'array_change_key_case+'
p203
I1
sS'apache_request_update_mtime'
p204
I0
sS'curl_multi_info_read'
p205
I0
sS'pspell_suggest'
p206
I0
sS'html_entity_decode+'
p207
I1
sS'fdf_set_on_import_javascript'
p208
I0
sS'curl_multi_init'
p209
I0
sS'fbsql_data_seek'
p210
I0
sS'nsapi_request_headers'
p211
I0
sS'mb_strrpos+'
p212
I2
sS'apache_request_content_length'
p213
I0
sS'log+'
p214
I1
sS'openssl_sign'
p215
I0
sS'chunk_split+'
p216
I1
sS'fbsql_read_blob'
p217
I0
sS'ldap_compare'
p218
I0
sS'pg_connection_status'
p219
I0
sS'oci_lob_save'
p220
I0
sS'htmlentities+'
p221
I1
sS'openssl_pkcs7_verify'
p222
I0
sS'numfmt_get_pattern '
p223
I0
sS'shmop_size'
p224
I0
sS'ldap_count_entries'
p225
I0
sS'grapheme_substr'
p226
I0
sS'posix_seteuid'
p227
I0
sS'openssl_pkey_new'
p228
I0
sS'oci_error'
p229
I0
sS'apache_request_discard_request_body'
p230
I0
sS'apache_get_version'
p231
I0
sS'proc_nice'
p232
I1
sS'numfmt_get_symbol '
p233
I0
sS'locale_get_display_name'
p234
I0
sS'sscanf+'
p235
I2
sS'fdf_next_field_name'
p236
I0
sS'msql_list_dbs'
p237
I0
sS'dom_namednodemap_get_named_item'
p238
I0
sS'pg_lo_read_all'
p239
I0
sS'display_disabled_function'
p240
I0
sS'imageconvolution'
p241
I0
sS'imagelayereffect'
p242
I0
sS'mysqli_rpl_probe'
p243
I0
sS'dom_element_set_id_attribute_node'
p244
I0
sS'odbc_fetch_row'
p245
I0
sS'msgfmt_get_error_code '
p246
I0
sS'mysql_stat'
p247
I0
sS'array_slice+'
p248
I2
sS'mcrypt_ecb'
p249
I0
sS'odbc_execute'
p250
I0
sS'ming_useSWFVersion'
p251
I0
sS'xmlrpc_encode_request'
p252
I0
sS'date_format'
p253
I2
sS'mysqli_disable_reads_from_master'
p254
I0
sS'mysqli_driver_construct'
p255
I0
sS'file_exists'
p256
I1
sS'mysqli_field_tell'
p257
I0
sS'xmlwriter_start_dtd_element'
p258
I2
sS'pg_lo_read'
p259
I0
sS'ldap_get_entries'
p260
I0
sS'ibase_errcode'
p261
I0
sS'smfi_settimeout'
p262
I0
sS'gmp_and'
p263
I0
sS'imap_unsubscribe'
p264
I0
sS'dom_node_is_equal_node'
p265
I0
sS'birdstep_off_autocommit'
p266
I0
sS'forward_static_call_array'
p267
I2
sS'date_date_set'
p268
I4
sS'ereg_replace'
p269
I3
sS'mssql_select_db'
p270
I0
sS'session_set_save_handler'
p271
I0
sS'imagepscopyfont'
p272
I0
sS'snmp2_getnext'
p273
I0
sS'apache_request_no_cache'
p274
I0
sS'dom_xpath_register_php_functions'
p275
I0
sS'memory_get_peak_usage) {'
p276
I0
sS'settype'
p277
I2
sS'mysqli_use_result'
p278
I0
sS'imap_setacl'
p279
I0
sS'apache_request_send_http_trace'
p280
I0
sS'iptcembed+'
p281
I2
sS'sqlite_query'
p282
I0
sS'xmlwriter_full_end_element'
p283
I1
sS'mysqli_stmt_sqlstate'
p284
I0
sS'xmlwriter_end_dtd_entity'
p285
I1
sS'preg_replace+'
p286
I3
sS'snmp3_getnext'
p287
I0
sS'strip_tags+'
p288
I1
sS'dom_element_set_attribute_node'
p289
I0
sS'ctype_alpha'
p290
I1
sS'readgzfile+'
p291
I1
sS'mysqli_next_result) {'
p292
I0
sS'xml_error_string'
p293
I1
sS'fileatime'
p294
I1
sS'ibase_prepare'
p295
I0
sS'natsort'
p296
I1
sS'max+'
p297
I1
sS'base64_decode+'
p298
I1
sS'pg_convert'
p299
I0
sS'apache_request_request_time'
p300
I0
sS'call_user_method_array'
p301
I3
sS'msgfmt_get_locale '
p302
I0
sS'tidy_get_config'
p303
I0
sS'imagecreatefromwbmp'
p304
I0
sS'ldap_next_entry'
p305
I0
sS'fbsql_close'
p306
I0
sS'gmp_intval'
p307
I0
sS'hash_final+'
p308
I1
sS'imagecopyresized'
p309
I0
sS'posix_isatty'
p310
I0
sS'exif_imagetype'
p311
I0
sS'mysqli_select_db'
p312
I0
sS'fdf_set_ap'
p313
I0
sS'mysql_list_tables'
p314
I0
sS'sqlite_unbuffered_query'
p315
I0
sS'msg_receive'
p316
I0
sS'dba_sync'
p317
I0
sS'ibase_param_info'
p318
I0
sS'oci_lob_is_equal'
p319
I0
sS'shm_detach'
p320
I0
sS'dl'
p321
I1
sS'posix_getgrgid'
p322
I0
sS'birdstep_fieldnum'
p323
I0
sS'ceil'
p324
I1
sS'mcrypt_list_algorithms'
p325
I0
sS'implode+'
p326
I1
sS'variant_eqv'
p327
I0
sS'pcntl_setpriority+'
p328
I1
sS'ip2long'
p329
I1
sS'snmp2_set'
p330
I0
sS'libxml_set_streams_context'
p331
I1
sS'tidy_clean_repair'
p332
I0
sS'oci_field_type_raw'
p333
I0
sS'locale_get_script '
p334
I0
sS'imap_createmailbox'
p335
I0
sS'ldap_delete'
p336
I0
sS'pspell_store_replacement'
p337
I0
sS'smfi_addheader'
p338
I0
sS'odbc_connect'
p339
I0
sS'strncmp'
p340
I3
sS'imagefilledrectangle'
p341
I0
sS'xml_get_current_line_number'
p342
I1
sS'dom_domconfiguration_set_parameter'
p343
I0
sS'proc_close'
p344
I1
sS'apache_request_headers_out'
p345
I0
sS'mb_stripos+'
p346
I2
sS'birdstep_commit'
p347
I0
sS'mcrypt_encrypt'
p348
I0
sS'number_format+'
p349
I1
sS'apache_request_basic_http_header'
p350
I0
sS'rad2deg'
p351
I1
sS'iconv_get_encoding'
p352
I0
sS'posix_setegid'
p353
I0
sS'mysqli_fetch_row'
p354
I0
sS'extract+'
p355
I1
sS'ming_setCubicThreshold'
p356
I0
sS'date_default_timezone_get'
p357
I0
sS'imagecopymerge'
p358
I0
sS'session_unregister'
p359
I1
sS'apache_request_server_port'
p360
I0
sS'apache_request_sub_req_method_uri'
p361
I0
sS'dom_element_set_id_attribute'
p362
I0
sS'snmp_set_enum_print'
p363
I0
sS'dom_element_get_elements_by_tag_name_ns'
p364
I0
sS'class_implements+'
p365
I1
sS'wordwrap+'
p366
I1
sS'xmlrpc_get_type'
p367
I0
sS'ibase_blob_import'
p368
I0
sS'imagecharup'
p369
I0
sS'openssl_pkcs7_encrypt'
p370
I0
sS'strnatcasecmp'
p371
I2
sS'cos'
p372
I1
sS'imap_delete'
p373
I0
sS'pg_lo_import'
p374
I0
sS'dom_document_savexml'
p375
I0
sS'apache_request_rputs'
p376
I0
sS'pspell_add_to_personal'
p377
I0
sS'dom_namednodemap_set_named_item'
p378
I0
sS'gethostbynamel'
p379
I1
sS'stream_wrapper_register+'
p380
I2
sS'imap_8bit'
p381
I0
sS'file_get_contents+'
p382
I1
sS'posix_setuid'
p383
I0
sS'bzerrno'
p384
I0
sS'ibase_num_params'
p385
I0
sS'datefmt_parse '
p386
I0
sS'variant_xor'
p387
I0
sS'oci_lob_export'
p388
I0
sS'variant_fix'
p389
I0
sS'dom_document_xinclude'
p390
I0
sS'snmp_set_oid_output_format'
p391
I0
sS'pg_get_result'
p392
I0
sS'apache_request_run'
p393
I0
sS'ibase_modify_user'
p394
I0
sS'ldap_mod_add'
p395
I0
sS'ldap_first_reference'
p396
I0
sS'class_exists+'
p397
I1
sS'msgfmt_format '
p398
I0
sS'json_encode'
p399
I0
sS'mb_preferred_mime_name'
p400
I1
sS'apache_request_send_http_options'
p401
I0
sS'mysqli_store_result'
p402
I0
sS'array_diff_uassoc+'
p403
I3
sS'get_headers+'
p404
I1
sS'imagettfbbox'
p405
I0
sS'iconv_substr'
p406
I0
sS'apache_request_content_type'
p407
I0
sS'numfmt_get_error_message '
p408
I0
sS'iptcparse'
p409
I1
sS'resourcebundle_get '
p410
I0
sS'mdecrypt_generic'
p411
I0
sS'ldap_add'
p412
I0
sS'mssql_fetch_row'
p413
I0
sS'posix_setsid'
p414
I0
sS'tanh'
p415
I1
sS'shmop_delete'
p416
I0
sS'xmlrpc_server_register_method'
p417
I0
sS'sqlite_error_string'
p418
I0
sS'mssql_field_type'
p419
I0
sS'rename+'
p420
I2
sS'array_replace+'
p421
I1
sS'solid_fetch_prev'
p422
I0
sS'ob_iconv_handler'
p423
I0
sS'str_rot13'
p424
I1
sS'xmlrpc_is_fault'
p425
I0
sS'dom_element_remove_attribute_ns'
p426
I0
sS'ibase_free_event_handler'
p427
I0
sS'fdf_errno'
p428
I0
sS'imap_num_recent'
p429
I0
sS'imap_mutf7_to_utf8'
p430
I0
sS'fdf_header'
p431
I0
sS'pcntl_sigwaitinfo+'
p432
I1
sS'bcsub'
p433
I0
sS'tidy_get_body'
p434
I0
sS'pg_version'
p435
I0
sS'get_browser'
p436
I0
sS'register_tick_function'
p437
I0
sS'pg_last_notice'
p438
I0
sS'sybase_field_len'
p439
I0
sS'oci_commit'
p440
I0
sS'apache_request_proxyreq'
p441
I0
sS'ibase_delete_user'
p442
I0
sS'imap_undelete'
p443
I0
sS'date_timezone_set'
p444
I2
sS'msgfmt_get_error_message '
p445
I0
sS'ob_flush'
p446
I0
sS'call_user_func+'
p447
I1
sS'nl_langinfo'
p448
I1
sS'xmlwriter_end_dtd'
p449
I1
sS'variant_abs'
p450
I0
sS'bcmul'
p451
I0
sS'mysqli_next_result'
p452
I0
sS'ibase_trans'
p453
I0
sS'resourcebundle_create '
p454
I0
sS'sqlite_prev'
p455
I0
sS'pspell_new'
p456
I0
sS'dbase_numfields'
p457
I0
sS'dom_document_import_node'
p458
I0
sS'tidy_repair_string'
p459
I0
sS'posix_strerror'
p460
I0
sS'variant_set_type'
p461
I0
sS'array_push+'
p462
I2
sS'imagecreatefrompng'
p463
I0
sS'" funcs[i] ");" > extname "/function_declarations"'
p464
I0
sS'mhash'
p465
I0
sS'date_parse_from_format'
p466
I2
sS'stream_socket_recvfrom+'
p467
I2
sS'image2wbmp'
p468
I0
sS'shuffle'
p469
I1
sS'pg_query'
p470
I0
sS'mb_strlen+'
p471
I1
sS'iconv_strrpos'
p472
I0
sS'mysql_get_proto_info'
p473
I0
sS'xsl_xsltprocessor_import_stylesheet'
p474
I0
sS'is_float'
p475
I1
sS'xmlwriter_write_raw'
p476
I2
sS'ldap_next_attribute'
p477
I0
sS'fbsql_field_type'
p478
I0
sS'msql_fetch_object'
p479
I0
sS'iconv_mime_decode'
p480
I0
sS'serialize'
p481
I1
sS'str_shuffle'
p482
I1
sS'com_variant_create_instance'
p483
I0
sS'xmlwriter_end_document'
p484
I1
sS'ldap_free_result'
p485
I0
sS'xmlwriter_write_pi'
p486
I3
sS'shm_get_var'
p487
I0
sS'pcntl_sigprocmask+'
p488
I2
sS'imagepsbbox'
p489
I0
sS'mysql_insert_id'
p490
I0
sS'enchant_dict_describe'
p491
I0
sS'pg_cancel_query'
p492
I0
sS'com_create_instance'
p493
I0
sS'imagearc'
p494
I0
sS'fdf_get_flags'
p495
I0
sS'bcpowmod'
p496
I0
sS'ldap_errno'
p497
I0
sS'mysqli_stmt_init'
p498
I0
sS'hypot'
p499
I2
sS'oci_fetch_assoc'
p500
I0
sS'date_time_set+'
p501
I3
sS'pspell_config_dict_dir'
p502
I0
sS'fdf_get_ap'
p503
I0
sS'gmp_add'
p504
I0
sS'posix_getsid'
p505
I0
sS'mysqli_set_local_infile_handler'
p506
I0
sS'dba_list'
p507
I0
sS'datefmt_set_calendar '
p508
I0
sS'imagefilledpolygon'
p509
I0
sS'dom_element_get_attribute_node_ns'
p510
I0
sS'array_shift'
p511
I1
sS'func_get_args'
p512
I0
sS'deg2rad'
p513
I1
sS'apache_request_set_last_modified'
p514
I0
sS'bindec'
p515
I1
sS'ldap_search'
p516
I0
sS'mcrypt_module_get_supported_key_sizes'
p517
I0
sS'mb_ereg_replace+'
p518
I3
sS'func_num_args'
p519
I0
sS'date_modify'
p520
I2
sS'" funcs[i] ");\\n"'
p521
I0
sS'xml_set_default_handler'
p522
I2
sS'mysqli_stmt_bind_result'
p523
I0
sS'gmp_gcdext'
p524
I0
sS'strpbrk'
p525
I2
sS'ibase_connect'
p526
I0
sS'pcntl_sigtimedwait+'
p527
I1
sS'zend_test_func'
p528
I0
sS'acos'
p529
I1
sS'unlink+'
p530
I1
sS'mysqli_thread_id'
p531
I0
sS'stream_get_line+'
p532
I2
sS'mysqli_sqlstate'
p533
I0
sS'ibase_num_rows'
p534
I0
sS'tempnam'
p535
I2
sS'array_merge_recursive+'
p536
I1
sS'fbsql_change_user'
p537
I0
sS'convert_cyr_string'
p538
I3
sS'imagepsfreefont'
p539
I0
sS'fsockopen+'
p540
I1
sS'ibase_wait_event'
p541
I0
sS'xmlwriter_start_attribute_ns'
p542
I4
sS'resourcebundle_get_error_message '
p543
I0
sS'is_resource'
p544
I1
sS'enchant_broker_dict_exists'
p545
I0
sS'oci_parse'
p546
I0
sS'get_extension_funcs'
p547
I1
sS'iterator_count'
p548
I1
sS'imap_deletemailbox'
p549
I0
sS'dbstmt_constructor) /* {{{ */'
p550
I0
sS'round+'
p551
I1
sS'get_class_vars'
p552
I1
sS'ucfirst'
p553
I1
sS'lchgrp'
p554
I2
sS'date_parse'
p555
I1
sS'resourcebundle_locales '
p556
I0
sS'socket_getsockname'
p557
I0
sS'ini_restore'
p558
I1
sS'array_intersect_key+'
p559
I2
sS'dom_node_lookup_namespace_uri'
p560
I0
sS'collator_asort '
p561
I0
sS'exif_tagname'
p562
I0
sS'ldap_rename'
p563
I0
sS'imap_mail'
p564
I0
sS'enchant_broker_free'
p565
I0
sS'mysqli_stmt_store_result'
p566
I0
sS'mssql_bind'
p567
I0
sS'locale_get_display_language'
p568
I0
sS'gettype'
p569
I1
sS'disk_free_space'
p570
I1
sS'msql_list_tables'
p571
I0
sS'mysql_fetch_field'
p572
I0
sS'ob_gzhandler'
p573
I2
sS'mysqli_get_client_version'
p574
I0
sS'sqlite_fetch_column_types'
p575
I0
sS'fdf_set_opt'
p576
I0
sS'sqlite_changes'
p577
I0
sS'sybase_min_server_severity'
p578
I0
sS'apache_child_terminate'
p579
I0
sS'iconv_strlen'
p580
I0
sS'dom_userdatahandler_handle'
p581
I0
sS'floor'
p582
I1
sS'numfmt_set_attribute '
p583
I0
sS'cal_from_jd'
p584
I0
sS'imageistruecolor'
p585
I0
sS'imagefontwidth'
p586
I0
sS'strtr+'
p587
I2
sS'numfmt_parse '
p588
I0
sS'stream_set_blocking'
p589
I2
sS'addcslashes'
p590
I2
sS'mysql_num_fields'
p591
I0
sS'easter_date'
p592
I0
sS'ldap_get_values_len'
p593
I0
sS'fbsql_db_query'
p594
I0
sS'continuity_request_headers'
p595
I0
sS'socket_close'
p596
I0
sS'mysql_field_table'
p597
I0
sS'mail+'
p598
I3
sS'pg_get_notify'
p599
I0
sS'sybase_min_error_severity'
p600
I0
sS'birdstep_exec'
p601
I0
sS'stream_bucket_new'
p602
I2
sS'oci_internal_debug'
p603
I0
sS'stripcslashes'
p604
I1
sS'xmlwriter_set_indent_string'
p605
I2
sS'mcrypt_generic'
p606
I0
sS'dom_document_create_entity_reference'
p607
I0
sS'oci_lob_write_temporary'
p608
I0
sS'openssl_private_decrypt'
p609
I0
sS'finfo_set_flags'
p610
I2
sS'socket_last_error'
p611
I0
sS'str_getcsv+'
p612
I1
sS'sqlite_libversion'
p613
I0
sS'pg_result_error_field'
p614
I0
sS'dom_namelist_get_name'
p615
I0
sS'grapheme_strstr'
p616
I0
sS'session_destroy'
p617
I0
sS'fbsql_select_db'
p618
I0
sS'imagepsextendfont'
p619
I0
sS'variant_div'
p620
I0
sS'odbc_columnprivileges'
p621
I0
sS'unpack'
p622
I2
sS'mssql_free_statement'
p623
I0
sS'hash_file+'
p624
I2
sS'mysql_list_fields'
p625
I0
sS'mysql_fetch_assoc'
p626
I0
sS'com_method_handler'
p627
I0
sS'posix_getgrnam'
p628
I0
sS'openssl_csr_get_subject'
p629
I0
sS'putenv'
p630
I1
sS'dom_domerrorhandler_handle_error'
p631
I0
sS'mssql_execute'
p632
I0
sS'fdf_error'
p633
I0
sS'pg_query_params'
p634
I0
sS'hash_update_stream+'
p635
I2
sS'array_uintersect_assoc+'
p636
I3
sS'dom_element_set_attribute'
p637
I0
sS'pg_lo_export'
p638
I0
sS'pspell_config_save_repl'
p639
I0
sS'timezone_name_from_abbr+'
p640
I1
sS'apache_request_proto_num'
p641
I0
sS'curl_getinfo'
p642
I0
sS'pg_untrace'
p643
I0
sS'fdf_get_value'
p644
I0
sS'snmp_set_quick_print'
p645
I0
sS'is_a'
p646
I2
sS'stream_filter_append+'
p647
I2
sS'collator_sort_with_sort_keys '
p648
I0
sS'mysqli_stmt_next_result) {'
p649
I0
sS'preg_match_all+'
p650
I3
sS'sybase_result'
p651
I0
sS'imap_mime_header_decode'
p652
I0
sS'spliti+'
p653
I2
sS'pcntl_wifstopped'
p654
I1
sS'cosh'
p655
I1
sS'pg_fetch_all_columns'
p656
I0
sS'set_error_handler+'
p657
I1
sS'mcrypt_module_open'
p658
I0
sS'simplexml_load_string+'
p659
I1
sS'odbc_cursor'
p660
I0
sS'imagefilltoborder'
p661
I0
sS'odbc_procedurecolumns'
p662
I0
sS'dom_element_set_attribute_node_ns'
p663
I0
sS'numfmt_get_locale '
p664
I0
sS'imap_rfc822_parse_headers'
p665
I0
sS'openlog'
p666
I3
sS'strtotime+'
p667
I1
sS'fbsql_connect'
p668
I0
sS'current'
p669
I1
sS'apache_request_some_auth_required'
p670
I0
sS'imagesetbrush'
p671
I0
sS'dom_xpath_register_ns'
p672
I0
sS'msql_create_db'
p673
I0
sS'stream_select+'
p674
I4
sS'posix_ttyname'
p675
I0
sS'fbsql_set_lob_mode'
p676
I0
sS'ftp_chdir'
p677
I0
sS'ini_set'
p678
I2
sS'xmlwriter_start_element'
p679
I2
sS'dns_get_mx+'
p680
I2
sS'msgfmt_parse_message '
p681
I0
sS'mssql_fetch_field'
p682
I0
sS'pg_client_encoding'
p683
I0
sS'datefmt_set_lenient '
p684
I0
sS'variant_date_from_timestamp'
p685
I0
sS'mysqli_stmt_num_rows'
p686
I0
sS'sqlite_num_rows'
p687
I0
sS'fdf_get_encoding'
p688
I0
sS'mb_strstr+'
p689
I2
sS'stream_copy_to_stream+'
p690
I2
sS'shmop_close'
p691
I0
sS'apache_request_satisfies'
p692
I0
sS'ftp_nlist'
p693
I0
sS'grapheme_stristr'
p694
I0
sS'ldap_read'
p695
I0
sS'mb_send_mail+'
p696
I3
sS'fdf_set_version'
p697
I0
sS'dbase_add_record'
p698
I0
sS'openssl_decrypt'
p699
I0
sS'hash_init+'
p700
I1
sS'fdf_open'
p701
I0
sS'ming_setScale'
p702
I0
sS'datefmt_get_timezone_id '
p703
I0
sS'ibase_service_detach'
p704
I0
sS'oci_free_descriptor'
p705
I0
sS'shm_attach'
p706
I0
sS'date_timestamp_get'
p707
I1
sS'oci_password_change'
p708
I0
sS'gettimeofday'
p709
I0
sS'sqlite_fetch_object'
p710
I0
sS'sha1+'
p711
I1
sS'tidy_get_head'
p712
I0
sS'dom_node_set_user_data'
p713
I0
sS'fbsql_field_table'
p714
I0
sS'apache_request_filename'
p715
I0
sS'intl_error_name '
p716
I0
sS'wddx_serialize_value'
p717
I0
sS'openssl_csr_get_public_key'
p718
I0
sS'getprotobynumber'
p719
I1
sS'apache_request_send_http_header'
p720
I0
sS'date_add'
p721
I2
sS'numfmt_get_error_code '
p722
I0
sS'gzuncompress+'
p723
I1
sS'stristr+'
p724
I2
sS'pg_result_seek'
p725
I0
sS'msql_fetch_row'
p726
I0
sS'ibase_rollback_ret'
p727
I0
sS'datefmt_get_error_code '
p728
I0
sS'sybase_list_fields'
p729
I0
sS'quoted_printable_decode'
p730
I1
sS'chroot'
p731
I1
sS'mysql_result'
p732
I0
sS'filegroup'
p733
I1
sS'imagestring'
p734
I0
sS'sem_release'
p735
I0
sS'gmp_hamdist'
p736
I0
sS'pg_get_pid'
p737
I0
sS'atan'
p738
I1
sS'disk_total_space'
p739
I1
sS'posix_getpgrp'
p740
I0
sS'array_diff_key+'
p741
I2
sS'sqlite_single_query'
p742
I0
sS'ftp_raw'
p743
I0
sS'highlight_file+'
p744
I1
sS'ldap_set_option'
p745
I0
sS'fbsql_affected_rows'
p746
I0
sS'hash_hmac_file+'
p747
I3
sS'ftp_put'
p748
I0
sS'pg_fetch_assoc'
p749
I0
sS'datefmt_get_pattern '
p750
I0
sS'ob_end_flush'
p751
I0
sS'imap_expunge'
p752
I0
sS'fdf_set_flags'
p753
I0
sS'ibase_close'
p754
I0
sS'imageantialias'
p755
I0
sS'mb_ereg_search_setpos'
p756
I1
sS'locale_get_display_region '
p757
I0
sS'quotemeta'
p758
I1
sS'openssl_error_string'
p759
I0
sS'imagepalettecopy'
p760
I0
sS'xsl_xsltprocessor_set_profiling'
p761
I0
sS'fbsql_set_password'
p762
I0
sS'exif_thumbnail'
p763
I0
sS'mysql_affected_rows'
p764
I0
sS'pg_field_name'
p765
I0
sS'imap_open'
p766
I0
sS'pg_field_type'
p767
I0
sS'bcscale'
p768
I0
sS'ldap_mod_replace'
p769
I0
sS'crypt+'
p770
I1
sS'sybase_num_rows'
p771
I0
sS'datefmt_get_timezone '
p772
I0
sS'mb_strcut+'
p773
I2
sS'collator_set_strength '
p774
I0
sS'xml_set_object'
p775
I2
sS'openssl_x509_checkpurpose'
p776
I0
sS'posix_getgroups'
p777
I0
sS'mysql_unbuffered_query'
p778
I0
sS'fdf_save_string'
p779
I0
sS'smfi_setflags'
p780
I0
sS'parse_ini_string+'
p781
I1
sS'rtrim+'
p782
I1
sS'sqlite_busy_timeout'
p783
I0
sS'pg_put_line'
p784
I0
sS'posix_getcwd'
p785
I0
sS'array_chunk+'
p786
I2
sS') macro. They should be in lowercase, with words'
p787
I0
sS'mysql_get_client_info'
p788
I0
sS'variant_add'
p789
I0
sS'wddx_add_vars'
p790
I0
sS'gmp_perfect_square'
p791
I0
sS'gmp_div_qr'
p792
I0
sS'soap_encode_to_xml'
p793
I0
sS'mysqli_set_local_infile_default'
p794
I0
sS'fbsql_db_status'
p795
I0
sS'iconv_set_encoding'
p796
I0
sS'apache_request_method'
p797
I0
sS'imageellipse'
p798
I0
sS'mcrypt_enc_get_modes_name'
p799
I0
sS'dom_element_set_id_attribute_ns'
p800
I0
sS'dirname'
p801
I1
sS'strnatcmp'
p802
I2
sS'mb_strtolower+'
p803
I1
sS'mssql_free_result'
p804
I0
sS'gmp_or'
p805
I0
sS'gmp_legendre'
p806
I0
sS'mysqli_stmt_attr_set'
p807
I0
sS'imagefontheight'
p808
I0
sS'locale_get_display_region'
p809
I0
sS'sqlite_next'
p810
I0
sS'mysqli_fetch_lengths'
p811
I0
sS'ctype_print'
p812
I1
sS'stream_filter_prepend+'
p813
I2
sS'dom_element_get_attribute'
p814
I0
sS'array_walk_recursive+'
p815
I2
sS'sqlite_exec'
p816
I0
sS'stream_context_set_default'
p817
I1
sS'dba_optimize'
p818
I0
sS'mysqli_insert_id'
p819
I0
sS'mysqli'
p820
I0
sS'ord'
p821
I1
sS'expm1'
p822
I1
sS'xml_set_external_entity_ref_handler'
p823
I2
sS'oci_lob_read'
p824
I0
sS'fdf_set_encoding'
p825
I0
sS'oci_set_client_info'
p826
I0
sS'pg_options'
p827
I0
sS'posix_mkfifo'
p828
I0
sS'locale_get_region '
p829
I0
sS'array_uintersect+'
p830
I3
sS'pspell_clear_session'
p831
I0
sS'pg_pconnect'
p832
I0
sS'ftp_nb_get'
p833
I0
sS'jdtojewish'
p834
I0
sS'dom_document_save_html'
p835
I0
sS'filemtime'
p836
I1
sS'numfmt_get_attribute '
p837
I0
sS'oci_collection_max'
p838
I0
sS'fd_isset'
p839
I0
sS'birdstep_fetch'
p840
I0
sS'array_count_values'
p841
I1
sS'mcrypt_module_self_test'
p842
I0
sS'dom_characterdata_replace_data'
p843
I0
sS'imagedashedline'
p844
I0
sS'oci_lob_write'
p845
I0
sS'mb_split+'
p846
I2
sS'odbc_setoption'
p847
I0
sS'imagefilledellipse'
p848
I0
sS'imap_list_full'
p849
I0
sS'dom_node_clone_node'
p850
I0
sS'fbsql_read_clob'
p851
I0
sS'apache_lookup_uri'
p852
I0
sS'gmp_invert'
p853
I0
sS'enchant_dict_add_to_personal'
p854
I0
sS'stream_socket_sendto+'
p855
I2
sS'mysqli_stat'
p856
I0
sS'ldap_get_dn'
p857
I0
sS'fbsql_insert_id'
p858
I0
sS'pg_result_error'
p859
I0
sS'xmlwriter_write_element+'
p860
I2
sS'apache_request_status'
p861
I0
sS'stream_socket_accept+'
p862
I1
sS'date_offset_get'
p863
I1
sS'fdf_set_value'
p864
I0
sS'imap_utf8_to_mutf7'
p865
I0
sS'mb_convert_kana+'
p866
I1
sS'mb_ereg_search_init+'
p867
I1
sS'ibase_blob_add'
p868
I0
sS'oci_free_collection'
p869
I0
sS'dbase_open'
p870
I0
sS'mysql_client_encoding'
p871
I0
sS'mysqli_enable_rpl_parse'
p872
I0
sS'dom_node_remove_child'
p873
I0
sS'imap_set_quota'
p874
I0
sS'wddx_deserialize'
p875
I0
sS'imap_popen'
p876
I0
sS'mysqli_fetch_object'
p877
I0
sS'fdf_get_status'
p878
I0
sS'xmlrpc_server_call_method'
p879
I0
sS'mysql_info'
p880
I0
sS'dom_document_get_element_by_id'
p881
I0
sS'imagecolorexact'
p882
I0
sS'touch+'
p883
I1
sS'imap_fetchstructure'
p884
I0
sS'dom_document_get_elements_by_tag_name_ns'
p885
I0
sS'realpath'
p886
I1
sS'" funcs[i] ")\\n{"'
p887
I0
sS'gzfile+'
p888
I1
sS'unixtojd'
p889
I0
sS'openssl_get_cipher_methods'
p890
I0
sS'sybase_fetch_lengths'
p891
I0
sS'fbsql_num_rows'
p892
I0
sS'pfsockopen+'
p893
I1
sS'openssl_encrypt'
p894
I0
sS'xmlrpc_encode'
p895
I0
sS'ftp_nb_continue'
p896
I0
sS'mysqli_rollback'
p897
I0
sS'mysqli_report'
p898
I0
sS'pspell_check'
p899
I0
sS'apache_request_hostname'
p900
I0
sS'oci_field_size'
p901
I0
sS'msql_data_seek'
p902
I0
sS'snmpset'
p903
I0
sS'version_compare+'
p904
I2
sS'vfprintf'
p905
I0
sS'curl_multi_close'
p906
I0
sS'mssql_fetch_array'
p907
I0
sS'date_isodate_set+'
p908
I3
sS'mysqli_refresh'
p909
I0
sS'dom_namednodemap_get_named_item_ns'
p910
I0
sS'gmp_prob_prime'
p911
I0
sS'enchant_broker_free_dict'
p912
I0
sS'ini_get'
p913
I1
sS'stream_get_contents+'
p914
I1
sS'is_string'
p915
I1
sS'imap_msgno'
p916
I0
sS'variant_mod'
p917
I0
sS'imagerectangle'
p918
I0
sS'mysqli_stmt_get_result'
p919
I0
sS'ldap_first_entry'
p920
I0
sS'posix_getpwnam'
p921
I0
sS'imagecreatetruecolor'
p922
I0
sS'fscanf+'
p923
I2
sS'pg_free_result'
p924
I0
sS'pcntl_wstopsig'
p925
I1
sS'oci_field_precision'
p926
I0
sS'xmlwriter_write_cdata'
p927
I2
sS'parse_str+'
p928
I1
sS'apache_request_auth_name'
p929
I0
sS'jdmonthname'
p930
I0
sS'ocifetchstatement'
p931
I0
sS'pg_close'
p932
I0
sS'xmlrpc_server_create'
p933
I0
sS'mb_strrchr+'
p934
I2
sS'finfo_close'
p935
I1
sS'fdf_get_file'
p936
I0
sS'xmlrpc_set_type'
p937
I0
sS'ldap_explode_dn'
p938
I0
sS'utf8_encode'
p939
I1
sS'ocisetbufferinglob'
p940
I0
sS'continuity_response_headers'
p941
I0
sS'sqlite_last_error'
p942
I0
sS'gmp_jacobi'
p943
I0
sS'mssql_field_name'
p944
I0
sS'setlocale+'
p945
I2
sS'locale_canonicalize'
p946
I0
sS'ibase_backup'
p947
I0
sS'imagecreatefromjpeg'
p948
I0
sS'asort+'
p949
I1
sS'tidy_config_count'
p950
I0
sS'nsapi_virtual'
p951
I0
sS'gmp_powm'
p952
I0
sS'socket_write'
p953
I0
sS'fbsql_fetch_lengths'
p954
I0
sS's, preg_match)\\n{\\nlalala", -1, PREG_SPLIT_DELIM_CAPTURE | PREG_SPLIT_OFFSET_CAPTURE)'
p955
I0
sS'date+'
p956
I1
sS'posix_getlogin'
p957
I0
sS'variant_cat'
p958
I0
sS'dom_document_create_attribute'
p959
I0
sS'apache_request_path_info'
p960
I0
sS'mysql_real_escape_string'
p961
I0
sS'getopt+'
p962
I1
sS'odbc_rollback'
p963
I0
sS'mysqli_close) */'
p964
I0
sS'pg_fetch_result'
p965
I0
sS'xmlwriter_start_dtd_entity'
p966
I3
sS'msql_num_rows'
p967
I0
sS'ibase_add_user'
p968
I0
sS'ibase_name_result'
p969
I0
sS'oci_execute'
p970
I0
sS'snmprealwalk'
p971
I0
sS'openssl_x509_check_private_key'
p972
I0
sS'enchant_dict_store_replacement'
p973
I0
sS'ibase_fetch_row'
p974
I0
sS'jdtogregorian'
p975
I0
sS'xml_parser_free'
p976
I1
sS'mysqli_fetch_field_direct'
p977
I0
sS'ibase_blob_close'
p978
I0
sS'sqlite_valid'
p979
I0
sS'openssl_pkcs7_decrypt'
p980
I0
sS'array_values'
p981
I1
sS'pow'
p982
I2
sS'mysqli_stmt_more_results'
p983
I0
sS'jdtojulian'
p984
I0
sS'locale_filter_matches'
p985
I0
sS'mssql_pconnect'
p986
I0
sS'ldap_bind'
p987
I0
sS'apache_request_uri'
p988
I0
sS'dom_document_create_cdatasection'
p989
I0
sS'imagegrabscreen'
p990
I0
sS'fgets+'
p991
I1
sS'linkinfo'
p992
I1
sS'collator_set_attribute '
p993
I0
sS'fbsql_warnings'
p994
I0
sS'intval'
p995
I0
sS'openssl_csr_sign'
p996
I0
sS'gmp_nextprime'
p997
I0
sS'bzread'
p998
I0
sS'date_interval_format'
p999
I2
sS'fdf_set_javascript_action'
p1000
I0
sS'gzopen+'
p1001
I2
sS'apache_request_meets_conditions'
p1002
I0
sS'odbc_result_all'
p1003
I0
sS'bcadd'
p1004
I0
sS'apache_get_modules'
p1005
I0
sS'bccomp'
p1006
I0
sS'dom_namednodemap_remove_named_item'
p1007
I0
sS'stream_filter_remove'
p1008
I1
sS'sqlite_libencoding'
p1009
I0
sS'gmp_scan1'
p1010
I0
sS'gmp_scan0'
p1011
I0
sS'imagewbmp'
p1012
I0
sS'posix_uname'
p1013
I0
sS'pg_connection_busy'
p1014
I0
sS'sybase_field_name'
p1015
I0
sS'ibase_blob_create'
p1016
I0
sS'sybase_select_db'
p1017
I0
sS'sybase_field_flags'
p1018
I0
sS'mysqli_real_query'
p1019
I0
sS'pg_update'
p1020
I0
sS'mkdir+'
p1021
I1
sS'mysql_field_seek'
p1022
I0
sS'ctype_space'
p1023
I1
sS'socket_recv'
p1024
I0
sS'mcrypt_enc_get_iv_size'
p1025
I0
sS'mb_convert_encoding+'
p1026
I2
sS'flock+'
p1027
I2
sS'mysqli_stmt_construct'
p1028
I0
sS'odbc_free_result'
p1029
I0
sS'sybase_field_type'
p1030
I0
sS'print_r+'
p1031
I1
sS'stream_is_local'
p1032
I1
sS'apache_request_is_initial_req'
p1033
I0
sS'stream_context_get_options'
p1034
I1
sS'pg_ping'
p1035
I0
sS'xml_parse+'
p1036
I2
sS'fbsql_autocommit'
p1037
I0
sS'dom_node_normalize'
p1038
I0
sS'sqlite_factory'
p1039
I0
sS'intl_get_error_message '
p1040
I0
sS'oci_new_cursor'
p1041
I0
sS'sqlite_last_insert_rowid'
p1042
I0
sS'oci_collection_element_assign'
p1043
I0
sS'intl_is_failure '
p1044
I0
sS'timezone_open'
p1045
I1
sS'mcrypt_get_iv_size'
p1046
I0
sS'array_fill'
p1047
I3
sS'apache_request_get_client_block'
p1048
I0
sS'gmp_mod'
p1049
I0
sS'dom_document_create_document_fragment'
p1050
I0
sS'enchant_dict_add_to_session'
p1051
I0
sS'mysqli_get_proto_info'
p1052
I0
sS'user_printf'
p1053
I0
sS'posix_mknod'
p1054
I0
sS'mcrypt_cfb'
p1055
I0
sS'jdtounix'
p1056
I0
sS'chgrp'
p1057
I2
sS'gmp_com'
p1058
I0
sS'mb_decode_numericentity'
p1059
I3
sS'snmp3_get'
p1060
I0
sS'mime_content_type'
p1061
I1
sS'iconv_mime_decode_headers'
p1062
I0
sS'interface_exists+'
p1063
I1
sS'is_writable'
p1064
I1
sS'display_disabled_class'
p1065
I0
sS'oci_bind_array_by_name'
p1066
I0
sS'is_scalar'
p1067
I1
sS'odbc_gettypeinfo'
p1068
I0
sS'snmpwalk'
p1069
I0
sS'apache_reset_timeout'
p1070
I0
sS'oci_lob_size'
p1071
I0
sS'fdf_add_template'
p1072
I0
sS'imagepsencodefont'
p1073
I0
sS'mysqli_num_fields'
p1074
I0
sS'ftp_pwd'
p1075
I0
sS'msg_get_queue'
p1076
I0
sS'pcntl_wifsignaled'
p1077
I1
sS'oci_new_descriptor'
p1078
I0
sS'proc_terminate+'
p1079
I1
sS'imap_headers'
p1080
I0
sS'collator_get_locale '
p1081
I0
sS'msgfmt_parse '
p1082
I0
sS'imap_close'
p1083
I0
sS'imagetypes'
p1084
I0
sS'strcmp'
p1085
I2
sS'fbsql_list_tables'
p1086
I0
sS'dom_node_insert_before'
p1087
I0
sS'is_long'
p1088
I1
sS'fgetc'
p1089
I1
sS'locale_get_keywords '
p1090
I0
sS'mysql_ping'
p1091
I0
sS'is_link'
p1092
I1
sS'oci_set_prefetch'
p1093
I0
sS'stream_socket_shutdown'
p1094
I2
sS'mb_eregi+'
p1095
I2
sS'imagecreatefromstring'
p1096
I0
sS'pg_set_client_encoding'
p1097
I0
sS'mssql_num_fields'
p1098
I0
sS'stream_socket_pair'
p1099
I3
sS'smfi_getsymval'
p1100
I0
sS'pg_last_error'
p1101
I0
sS'ftell'
p1102
I1
sS'fdf_set_target_frame'
p1103
I0
sS'openssl_random_pseudo_bytes'
p1104
I0
sS'tidy_warning_count'
p1105
I0
sS'xmlwriter_end_element'
p1106
I1
sS'pg_trace'
p1107
I0
sS'is_readable'
p1108
I1
sS'mysqli_num_rows'
p1109
I0
sS'pspell_config_create'
p1110
I0
sS'file_put_contents+'
p1111
I2
sS'mysqli_get_server_info'
p1112
I0
sS'ibase_service_attach'
p1113
I0
sS'odbc_commit'
p1114
I0
sS'imagegrabwindow'
p1115
I0
sS'variant_round'
p1116
I0
sS'strrev'
p1117
I1
sS'stream_socket_enable_crypto+'
p1118
I2
sS'memory_get_usage) {'
p1119
I0
sS'ctype_alnum'
p1120
I1
sS'xsl_xsltprocessor_remove_parameter'
p1121
I0
sS'imap_get_quotaroot'
p1122
I0
sS'msg_send'
p1123
I0
sS'variant_sub'
p1124
I0
sS'array_fill_keys'
p1125
I2
sS'dom_import_simplexml'
p1126
I1
sS'imagecolorset'
p1127
I0
sS'ibase_fetch_assoc'
p1128
I0
sS'gzinflate+'
p1129
I1
sS'session_set_cookie_params+'
p1130
I1
sS'ibase_query'
p1131
I0
sS'msg_queue_exists'
p1132
I0
sS'posix_times'
p1133
I0
sS'mysqli_master_query'
p1134
I0
sS'pg_lo_close'
p1135
I0
sS'getimagesize+'
p1136
I1
sS'imap_rename'
p1137
I0
sS'is_executable'
p1138
I1
sS'rawurlencode'
p1139
I1
sS'imagecreatefromgd2part'
p1140
I0
sS'ob_tidyhandler'
p1141
I0
sS'oci_set_action'
p1142
I0
sS'stream_supports_lock'
p1143
I1
sS'imagesy'
p1144
I0
sS'imagesx'
p1145
I0
sS'mcrypt_enc_get_key_size'
p1146
I0
sS'addslashes'
p1147
I1
sS'variant_or'
p1148
I0
sS'fbsql_rollback'
p1149
I0
sS'imap_reopen'
p1150
I0
sS'call_user_func_array'
p1151
I2
sS'com_get_active_object'
p1152
I0
sS'locale_get_display_language '
p1153
I0
sS'msql_close'
p1154
I0
sS'mb_encode_numericentity'
p1155
I3
sS'metaphone+'
p1156
I1
sS'imap_body'
p1157
I0
sS'imagecolorallocatealpha'
p1158
I0
sS'apache_request_send_header_field'
p1159
I0
sS'variant_get_type'
p1160
I0
sS'imagetruecolortopalette'
p1161
I0
sS'pg_dbname'
p1162
I0
sS'oci_statement_type'
p1163
I0
sS'ucwords'
p1164
I1
sS'sqlite_seek'
p1165
I0
sS'grapheme_stripos'
p1166
I0
sS'getdate'
p1167
I0
sS'mysqli_free_result'
p1168
I0
sS'imap_bodystruct'
p1169
I0
sS'mysqli_commit'
p1170
I0
sS'sybase_fetch_row'
p1171
I0
sS'array_intersect_uassoc+'
p1172
I3
sS'imap_headerinfo'
p1173
I0
sS'set_exception_handler'
p1174
I1
sS'fbsql_start_db'
p1175
I0
sS'oci_fetch_all'
p1176
I0
sS'mysql_select_db'
p1177
I0
sS'oci_lob_flush'
p1178
I0
sS'imageline'
p1179
I0
sS'dom_document_schema_validate_xml'
p1180
I0
sS'oci_cancel'
p1181
I0
sS'variant_not'
p1182
I0
sS'odbc_prepare'
p1183
I0
sS'ftp_fput'
p1184
I0
sS'pg_end_copy'
p1185
I0
sS'mcrypt_module_get_algo_key_size'
p1186
I0
sS'openssl_x509_read'
p1187
I0
sS'ftp_mkdir'
p1188
I0
sS'dbase_get_record_with_names'
p1189
I0
sS'mcrypt_create_iv'
p1190
I0
sS'pspell_config_mode'
p1191
I0
sS'mysqli_real_connect'
p1192
I0
sS'oci_lob_close'
p1193
I0
sS'hash_update'
p1194
I2
sS'mcrypt_module_is_block_algorithm_mode'
p1195
I0
sS'mysqli_stmt_next_result'
p1196
I0
sS'mysqli_stmt_attr_get'
p1197
I0
sS'sybase_deadlock_retry_count'
p1198
I0
sS'preg_split+'
p1199
I2
sS'apache_request_remaining'
p1200
I0
sS'socket_strerror'
p1201
I0
sS'gmp_popcount'
p1202
I0
sS'imagefilter'
p1203
I0
sS'dom_element_remove_attribute_node'
p1204
I0
sS'chown'
p1205
I2
sS'oci_set_module_name'
p1206
I0
sS'sin'
p1207
I1
sS'openssl_pkcs12_export'
p1208
I0
sS'pcntl_wexitstatus'
p1209
I1
sS'xmlrpc_parse_method_descriptions'
p1210
I0
sS'socket_getpeername'
p1211
I0
sS'mysqli_affected_rows'
p1212
I0
sS'ibase_set_event_handler'
p1213
I0
sS'sybase_fetch_field'
p1214
I0
sS'mysqli_query'
p1215
I0
sS'acosh'
p1216
I1
sS'numfmt_parse_currency '
p1217
I0
sS'snmpget'
p1218
I0
sS'dom_document_relaxNG_validate_xml'
p1219
I0
sS'dom_namednodemap_remove_named_item_ns'
p1220
I0
sS'strptime'
p1221
I2
sS'unserialize'
p1222
I1
sS'dom_node_get_user_data'
p1223
I0
sS'fbsql_drop_db'
p1224
I0
sS'xmlwriter_write_dtd_element'
p1225
I3
sS'posix_initgroups'
p1226
I0
sS'fbsql_create_db'
p1227
I0
sS'mcrypt_get_block_size'
p1228
I0
sS'imap_get_quota'
p1229
I0
sS'ibase_rollback'
p1230
I0
sS'time_nanosleep'
p1231
I2
sS'apache_request_auth_type'
p1232
I0
sS'enchant_broker_request_pwl_dict'
p1233
I0
sS'ibase_commit_ret'
p1234
I0
sS'fwrite+'
p1235
I2
sS'ftp_close'
p1236
I0
sS'array_walk+'
p1237
I2
sS'preg_replace_callback+'
p1238
I3
sS'posix_getegid'
p1239
I0
sS'urlencode'
p1240
I1
sS'range+'
p1241
I2
sS'mb_eregi_replace+'
p1242
I3
sS'pcntl_alarm'
p1243
I1
sS'syslog'
p1244
I2
sS'fdf_get_opt'
p1245
I0
sS'openssl_pkey_export'
p1246
I0
sS'sqlite_fetch_single'
p1247
I0
sS'imagegif '
p1248
I0
sS'openssl_pkcs12_export_to_file'
p1249
I0
sS'pg_send_execute'
p1250
I0
sS'hash_update_file+'
p1251
I2
sS'datefmt_parse'
p1252
I0
sS'is_callable+'
p1253
I1
sS'openssl_pkey_get_private'
p1254
I0
sS'abs'
p1255
I1
sS'mb_strrichr+'
p1256
I2
sS'is_bool'
p1257
I1
sS'escapeshellcmd'
p1258
I1
sS'msql_field_type'
p1259
I0
sS'apache_response_headers'
p1260
I0
sS'mysqli_fetch_all'
p1261
I0
sS'decbin'
p1262
I1
sS'array_udiff+'
p1263
I3
sS'msg_stat_queue'
p1264
I0
sS'date_sunset+'
p1265
I1
sS'is_object'
p1266
I1
sS'sqlite_udf_decode_binary'
p1267
I0
sS'oci_fetch_array'
p1268
I0
sS'oci_rollback'
p1269
I0
sS'ibase_blob_cancel'
p1270
I0
sS'enchant_dict_check'
p1271
I0
sS'dom_element_has_attribute_ns'
p1272
I0
sS'mysql_query'
p1273
I0
sS'get_cfg_var'
p1274
I1
sS'popen'
p1275
I2
sS'snmp3_real_walk'
p1276
I0
sS'apache_request_set_content_length'
p1277
I0
sS'set_include_path'
p1278
I1
sS'mssql_rows_affected'
p1279
I0
sS'finfo_file+'
p1280
I2
sS'oci_connect'
p1281
I0
sS'openssl_x509_export_to_file'
p1282
I0
sS'enchant_dict_quick_check'
p1283
I0
sS'filetype'
p1284
I1
sS'odbc_field_len'
p1285
I0
sS'base64_encode'
p1286
I1
sS'openssl_x509_export'
p1287
I0
sS'xml_parse_into_struct+'
p1288
I3
sS'datefmt_localtime '
p1289
I0
sS'mysqli_link_construct'
p1290
I0
sS'zend_thread_id'
p1291
I0
sS'imagecolortransparent'
p1292
I0
sS'output_add_rewrite_var'
p1293
I2
sS'fbsql_errno'
p1294
I0
sS'is_numeric'
p1295
I1
sS'mysql_num_rows'
p1296
I0
sS'xmlwriter_flush+'
p1297
I1
sS'array_filter+'
p1298
I1
sS'socket_create_listen'
p1299
I0
sS'xmlwriter_start_cdata'
p1300
I1
sS'ibase_free_query'
p1301
I0
sS'openssl_pkcs7_sign'
p1302
I0
sS'imap_fetch_overview'
p1303
I0
sS'ftp_systype'
p1304
I0
sS'fdf_set_status'
p1305
I0
sS'mysql_fetch_lengths'
p1306
I0
sS'odbc_procedures'
p1307
I0
sS'pg_result_status'
p1308
I0
sS'imagexbm'
p1309
I0
sS'iterator_to_array+'
p1310
I1
sS'my_drawtext'
p1311
I0
sS'floatval'
p1312
I1
sS'str_ireplace+'
p1313
I3
sS'bcpow'
p1314
I0
sS'msg_remove_queue'
p1315
I0
sS'imagecopymergegray'
p1316
I0
sS'dom_document_create_element'
p1317
I0
sS'sqlite_key'
p1318
I0
sS'mcrypt_enc_self_test'
p1319
I0
sS'apache_request_log_error'
p1320
I0
sS'curl_setopt_array'
p1321
I0
sS'mysqli_row_seek'
p1322
I0
sS'strlen'
p1323
I1
sS'odbc_specialcolumns'
p1324
I0
sS'atanh'
p1325
I1
sS'timezone_transitions_get+'
p1326
I1
sS'mysql_drop_db'
p1327
I0
sS'arsort+'
p1328
I1
sS'dom_element_get_attribute_node'
p1329
I0
sS'stream_filter_register'
p1330
I2
sS'pg_lo_seek'
p1331
I0
sS'scandir+'
p1332
I1
sS'apache_request_method_number'
p1333
I0
sS'gethostbyname'
p1334
I1
sS'setcookie+'
p1335
I1
sS'gzdeflate+'
p1336
I1
sS'dba_close'
p1337
I0
sS'collator_get_error_code '
p1338
I0
sS'mysqli_stmt_get_warnings'
p1339
I0
sS'openssl_csr_export'
p1340
I0
sS'dom_node_compare_document_position'
p1341
I0
sS'date_timezone_get'
p1342
I1
sS'atan2'
p1343
I2
sS'strripos+'
p1344
I2
sS'pg_execute'
p1345
I0
sS'datefmt_get_locale '
p1346
I0
sS'filter_input_array+'
p1347
I1
sS'ldap_get_option'
p1348
I0
sS'pcntl_wifexited'
p1349
I1
sS'dom_string_extend_find_offset16'
p1350
I0
sS'array_splice+'
p1351
I2
sS'sqrt'
p1352
I1
sS'locale_get_display_script '
p1353
I0
sS'ftp_chmod'
p1354
I0
sS'exec+'
p1355
I1
sS'posix_getrlimit'
p1356
I0
sS'setrawcookie+'
p1357
I1
sS'pg_set_error_verbosity'
p1358
I0
sS'array_unshift+'
p1359
I2
sS'socket_read'
p1360
I0
sS'imagepolygon'
p1361
I0
sS'oci_field_type'
p1362
I0
sS'token_name'
p1363
I1
sS'simplexml_load_file+'
p1364
I1
sS'stream_bucket_append'
p1365
I2
sS'ibase_blob_echo'
p1366
I0
sS'ob_end_clean'
p1367
I0
sS'mb_substr+'
p1368
I2
sS'preg_filter+'
p1369
I3
sS'array_unique+'
p1370
I1
sS'socket_set_block'
p1371
I0
sS'strcoll'
p1372
I2
sS'mysqli_dump_debug_info'
p1373
I0
sS'ldap_list'
p1374
I0
sS'odbc_field_num'
p1375
I0
sS'pg_lo_tell'
p1376
I0
sS'mssql_close'
p1377
I0
sS'mysqli_error'
p1378
I0
sS'system+'
p1379
I1
sS'shell_exec'
p1380
I1
sS'fmod'
p1381
I2
sS'com_dotnet_create_instance'
p1382
I0
sS'fileowner'
p1383
I1
sS'shmop_read'
p1384
I0
sS'cal_info'
p1385
I0
sS'dbase_get_header_info'
p1386
I0
sS'sybase_pconnect'
p1387
I0
sS'gmp_cmp'
p1388
I0
sS'is_null'
p1389
I1
sS'apache_request_chunked'
p1390
I0
sS'mysqli_get_host_info'
p1391
I0
sS'curl_version'
p1392
I0
sS'fbsql_fetch_row'
p1393
I0
sS'openssl_verify'
p1394
I0
sS'gzencode+'
p1395
I1
sS'array_udiff_uassoc+'
p1396
I4
sS'strrchr'
p1397
I2
sS'dom_document_save_html_file'
p1398
I0
sS'mysql_set_charset'
p1399
I0
sS'dba_open'
p1400
I0
sS'gmp_strval'
p1401
I0
sS'com_message_pump'
p1402
I0
sS'variant_set'
p1403
I0
sS'xsl_xsltprocessor_get_parameter'
p1404
I0
sS'dom_node_append_child'
p1405
I0
sS'curl_multi_select'
p1406
I0
sS'gmp_sign'
p1407
I0
sS'nsapi_response_headers'
p1408
I0
sS'birdstep_rollback'
p1409
I0
sS'oci_collection_element_get'
p1410
I0
sS'array_udiff_assoc+'
p1411
I3
sS'fbsql_clob_size'
p1412
I0
sS'getprotobyname'
p1413
I1
sS'openssl_public_encrypt'
p1414
I0
sS'dom_nodelist_item'
p1415
I0
sS'socket_set_option'
p1416
I0
sS'ibase_field_info'
p1417
I0
sS'getservbyname'
p1418
I2
sS'pathinfo+'
p1419
I1
sS'explode+'
p1420
I2
sS'get_class'
p1421
I0
sS'ldap_get_values'
p1422
I0
sS'normalizer_is_normalized '
p1423
I0
sS'array_map+'
p1424
I2
sS'fbsql_free_result'
p1425
I0
sS'mysql_get_server_info'
p1426
I0
sS'hash_copy'
p1427
I1
sS'dom_characterdata_insert_data'
p1428
I0
sS'pg_field_size'
p1429
I0
sS'usleep'
p1430
I1
sS'dom_element_get_elements_by_tag_name'
p1431
I0
sS'header+'
p1432
I1
sS'is_array'
p1433
I1
sS'fdf_save'
p1434
I0
sS'locale_get_display_variant '
p1435
I0
sS'apache_request_allowed'
p1436
I0
sS'intl_get_error_code '
p1437
I0
sS'imagesavealpha'
p1438
I0
sS'ctype_digit'
p1439
I1
sS'tam_ ##name'
p1440
I0
sS'imagegif'
p1441
I0
sS'locale_lookup'
p1442
I0
sS'socket_bind'
p1443
I0
sS'array_product'
p1444
I1
sS'tdm_ ##name'
p1445
I0
sS'datefmt_set_timezone_id '
p1446
I0
sS'apache_getenv'
p1447
I0
sS'gmp_divexact'
p1448
I0
sS'fbsql_create_blob'
p1449
I0
sS'timezone_location_get'
p1450
I1
sS'import_request_variables+'
p1451
I1
sS'create_function'
p1452
I2
sS'imap_utf7_encode'
p1453
I0
sS'mysqli_result_construct'
p1454
I0
sS'gmp_clrbit'
p1455
I0
sS'dom_element_get_attribute_ns'
p1456
I0
sS'xmlwriter_output_memory+'
p1457
I1
sS'sem_acquire'
p1458
I0
sS'stream_socket_client+'
p1459
I1
sS'pg_field_table'
p1460
I0
sS'dom_node_has_child_nodes'
p1461
I0
sS'oci_new_connect'
p1462
I0
sS'fbsql_username'
p1463
I0
sS'apache_request_no_local_copy'
p1464
I0
sS'shm_remove'
p1465
I0
sS'mssql_field_length'
p1466
I0
sS'dom_node_has_attributes'
p1467
I0
sS'count_chars+'
p1468
I1
sS'pg_num_fields'
p1469
I0
sS'pg_fetch_array'
p1470
I0
sS'sqlite_column'
p1471
I0
sS'spl_autoload_call'
p1472
I1
sS'dba_nextkey'
p1473
I0
sS'escapeshellarg'
p1474
I1
sS'fbsql_stop_db'
p1475
I0
sS'datefmt_set_pattern '
p1476
I0
sS'mcrypt_get_cipher_name'
p1477
I0
sS'stream_wrapper_restore'
p1478
I1
sS'xmlwriter_start_element_ns'
p1479
I4
sS'dns_get_record+'
p1480
I1
sS'dom_xpath_query'
p1481
I0
sS'fbsql_error'
p1482
I0
sS'exp'
p1483
I1
sS'snmp_get_quick_print'
p1484
I0
sS'strncasecmp'
p1485
I3
sS'enchant_broker_set_ordering'
p1486
I0
sS'imap_timeout'
p1487
I0
sS'strpos+'
p1488
I2
sS'sqlite_fetch_all'
p1489
I0
sS'resourcebundle_count '
p1490
I0
sS'datefmt_format'
p1491
I0
sS'odbc_tables'
p1492
I0
sS'mysqli_errno'
p1493
I0
sS'sybase_field_table'
p1494
I0
sS'apache_request_the_request'
p1495
I0
sS'ldap_next_reference'
p1496
I0
sS'fileperms'
p1497
I1
sS'timezone_offset_get'
p1498
I2
sS'pg_fetch_all'
p1499
I0
sS'config_get_hash) /* {{{ */'
p1500
I0
sS'dba_firstkey'
p1501
I0
sS'bzopen'
p1502
I0
sS'mysqli_get_client_info'
p1503
I0
sS'imagesettile'
p1504
I0
sS'imap_mailboxmsginfo'
p1505
I0
sS'openssl_x509_parse'
p1506
I0
sS'imap_scanmailbox'
p1507
I0
sS'oci_set_client_identifier'
p1508
I0
sS'openssl_get_md_methods'
p1509
I0
sS'mssql_fetch_batch'
p1510
I0
sS'pcntl_wtermsig'
p1511
I1
sS'ftp_rawlist'
p1512
I0
sS'imagecolorsforindex'
p1513
I0
sS'sybase_fetch_assoc'
p1514
I0
sS'gmp_sqrt'
p1515
I0
sS'stream_bucket_make_writeable'
p1516
I1
sS'apache_request_handler'
p1517
I0
sS'posix_getpwuid'
p1518
I0
sS'enchant_broker_get_dict_path'
p1519
I0
sS'is_subclass_of'
p1520
I2
sS'odbc_data_source'
p1521
I0
sS'msql_db_query'
p1522
I0
sS'imagecolorallocate'
p1523
I0
sS'mb_convert_variables+'
p1524
I3
sS'sybase_query'
p1525
I0
sS'hebrev+'
p1526
I1
sS'substr_replace+'
p1527
I3
sS'openssl_private_encrypt'
p1528
I0
sS'pspell_new_personal'
p1529
I0
sS'xmlrpc_decode_request'
p1530
I0
sS'mysqli_stmt_free_result'
p1531
I0
sS'mysqli_get_cache_stats'
p1532
I0
sS'numfmt_format_currency '
p1533
I0
sS'pg_lo_write'
p1534
I0
sS'imagejpeg'
p1535
I0
sS'jewishtojd'
p1536
I0
sS'http_build_query+'
p1537
I1
sS'base_convert'
p1538
I3
sS'filter_has_var'
p1539
I2
sS'tidy_get_html_ver'
p1540
I0
sS'extension_loaded'
p1541
I1
sS'imagepstext'
p1542
I0
sS'locale_get_display_script'
p1543
I0
sS'openssl_pkcs12_read'
p1544
I0
sS'imageinterlace'
p1545
I0
sS'mb_encode_mimeheader+'
p1546
I1
sS'pg_num_rows'
p1547
I0
sS'socket_sendto'
p1548
I0
sS'dbase_pack'
p1549
I0
sS'ldap_sasl_bind'
p1550
I0
sS'mb_parse_str+'
p1551
I1
sS'oci_field_name'
p1552
I0
sS'ftp_get'
p1553
I0
sS'apache_request_unparsed_uri'
p1554
I0
sS'mcrypt_list_modes'
p1555
I0
sS'fbsql_get_autostart_info'
p1556
I0
sS'imap_status'
p1557
I0
sS'unregister_tick_function'
p1558
I1
sS'mysqli_stmt_execute'
p1559
I0
sS'mysqli_fetch_assoc'
p1560
I0
sS'bcsqrt'
p1561
I0
sS'pg_insert'
p1562
I0
sS'array_reverse+'
p1563
I1
sS'odbc_errormsg'
p1564
I0
sS'odbc_pconnect'
p1565
I0
sS'openssl_csr_new'
p1566
I0
sS'apache_request_content_encoding'
p1567
I0
sS'odbc_num_rows'
p1568
I0
sS'pack+'
p1569
I1
sS'mb_ereg+'
p1570
I2
sS'mssql_min_error_severity'
p1571
I0
sS'xml_set_element_handler'
p1572
I3
sS'socket_get_option'
p1573
I0
sS'posix_getpid'
p1574
I0
sS'birdstep_fieldname'
p1575
I0
sS'msql_query'
p1576
I0
sS'mysql_fetch_array'
p1577
I0
sS'apache_request_headers'
p1578
I0
sS'asinh'
p1579
I1
sS'imap_binary'
p1580
I0
sS'oci_collection_assign'
p1581
I0
sS'oci_lob_load'
p1582
I0
sS'preg_grep+'
p1583
I2
sS'htmlspecialchars_decode+'
p1584
I1
sS'tidy_get_error_buffer'
p1585
I0
sS'strrpos+'
p1586
I2
sS'dom_element_remove_attribute'
p1587
I0
sS'odbc_field_scale'
p1588
I0
sS'xmlrpc_server_add_introspection_data'
p1589
I0
sS'my_get_raw'
p1590
I0
sS'ibase_free_result'
p1591
I0
sS'mhash_get_hash_name'
p1592
I1
sS'collator_sort '
p1593
I0
sS'dom_document_normalize_document'
p1594
I0
sS'oci_field_is_null'
p1595
I0
sS'xmlrpc_decode'
p1596
I0
sS'dbase_close'
p1597
I0
sS'oci_lob_seek'
p1598
I0
sS'error_log+'
p1599
I1
sS'pg_lo_open'
p1600
I0
sS'recode_file'
p1601
I0
sS'simplexml_import_dom+'
p1602
I1
sS'passthru+'
p1603
I1
sS'datefmt_create '
p1604
I0
sS'imap_last_error'
p1605
I0
sS'mysqli_fetch_field'
p1606
I0
sS'mysqli_stmt_insert_id'
p1607
I0
sS'variant_date_to_timestamp'
p1608
I0
sS'snmpgetnext'
p1609
I0
sS'uasort'
p1610
I2
sS'pcntl_wait+'
p1611
I1
sS'collator_get_attribute '
p1612
I0
sS'set_time_limit'
p1613
I1
sS'mysqli_stmt_field_count'
p1614
I0
sS'uksort'
p1615
I2
sS'smfi_delrcpt'
p1616
I0
sS'mysqli_read_query_result'
p1617
I0
sS'highlight_string+'
p1618
I1
sS'openssl_seal'
p1619
I0
sS'grapheme_strlen'
p1620
I0
sS'xml_get_current_column_number'
p1621
I1
sS'mssql_next_result'
p1622
I0
sS'imagecreatefromgd'
p1623
I0
sS'ibase_maintain_db'
p1624
I0
sS'mcrypt_enc_is_block_mode'
p1625
I0
sS'curl_multi_add_handle'
p1626
I0
sS'fgetss+'
p1627
I1
sS'socket_send'
p1628
I0
sS'fbsql_num_fields'
p1629
I0
sS'mysqli_ping'
p1630
I0
sS'dechex'
p1631
I1
sS'fflush'
p1632
I1
sS'imagesetthickness'
p1633
I0
sS'locale_get_display_variant'
p1634
I0
sS'fd_set'
p1635
I0
sS'xmlwriter_write_attribute'
p1636
I3
sS'xmlwriter_set_indent'
p1637
I2
sS'msql_error'
p1638
I0
sS'xml_set_unparsed_entity_decl_handler'
p1639
I2
sS'oci_collection_append'
p1640
I0
sS'dbase_delete_record'
p1641
I0
sS'lchown'
p1642
I2
sS'session_is_registered'
p1643
I1
sS'enchant_broker_set_dict_path'
p1644
I0
sS'mysql_close'
p1645
I0
sS'mb_strimwidth+'
p1646
I3
sS'is_infinite'
p1647
I1
sS'openssl_pkey_get_details'
p1648
I0
sS'variant_mul'
p1649
I0
sS'imagecopy'
p1650
I0
sS'fdf_set_file'
p1651
I0
sS'msgfmt_set_pattern '
p1652
I0
sS'mysql_field_flags'
p1653
I0
sS'imap_thread'
p1654
I0
sS'imap_search'
p1655
I0
sS'array_pop'
p1656
I1
sS'apache_request_bytes_sent'
p1657
I0
sS'dba_key_split'
p1658
I0
sS'ibase_restore'
p1659
I0
sS'tidy_getopt'
p1660
I0
sS'msgfmt_format_message '
p1661
I0
sS'get_object_vars'
p1662
I1
sS'mssql_num_rows'
p1663
I0
sS'mysqli_fetch_fields'
p1664
I0
sS'enchant_broker_request_dict'
p1665
I0
sS'ldap_t61_to_8859'
p1666
I0
sS'dom_string_extend_find_offset32'
p1667
I0
sS'array_reduce+'
p1668
I2
sS'imagecolorstotal'
p1669
I0
sS'fbsql_field_len'
p1670
I0
sS'datefmt_localtime'
p1671
I0
sS'tidy_get_opt_doc'
p1672
I0
sS'mcrypt_generic_deinit'
p1673
I0
sS'oci_pconnect'
p1674
I0
sS'imagefttext'
p1675
I0
sS'trigger_error+'
p1676
I1
sS'imap_setflag_full'
p1677
I0
sS'oci_num_fields'
p1678
I0
sS'enchant_dict_suggest'
p1679
I0
sS'socket_set_nonblock'
p1680
I0
sS'sem_remove'
p1681
I0
sS'fbsql_hostname'
p1682
I0
sS'dom_document_create_text_node'
p1683
I0
sS'ibase_num_fields'
p1684
I0
sS'posix_ctermid'
p1685
I0
sS'iterator_apply+'
p1686
I2
sS'confirm_extname_compiled);\t/* For testing, remove later. */'
p1687
I0
sS'dom_namednodemap_item'
p1688
I0
sS'sybase_free_result'
p1689
I0
sS'mysqli_real_escape_string) {'
p1690
I0
sS'array_search+'
p1691
I2
sS'imap_fetchheader'
p1692
I0
sS'variant_int'
p1693
I0
sS'mcrypt_ofb'
p1694
I0
sS'mcrypt_enc_get_supported_key_sizes'
p1695
I0
sS'preg_quote+'
p1696
I1
sS'oci_lob_rewind'
p1697
I0
sS'mysqli_set_charset'
p1698
I0
sS'mysqli_stmt_param_count'
p1699
I0
sS'pg_select'
p1700
I0
sS'mysql_thread_id'
p1701
I0
sS'smfi_replacebody'
p1702
I0
sS'xml_set_character_data_handler'
p1703
I2
sS'eregi+'
p1704
I2
sS'sqlite_popen'
p1705
I0
sS'apache_request_protocol'
p1706
I0
sS'dbstmt_constructor'
p1707
I0
sS'datefmt_get_error_message '
p1708
I0
sS'mysqli_get_client_stats'
p1709
I0
sS'msql_free_result'
p1710
I0
sS'spl_autoload_unregister'
p1711
I1
sS'file+'
p1712
I1
sS'filter_var+'
p1713
I1
sS'sybase_num_fields'
p1714
I0
sS'usort'
p1715
I2
sS'substr+'
p1716
I2
sS'imap_utf8'
p1717
I0
sS'mb_convert_case+'
p1718
I2
sS'mysql_list_dbs'
p1719
I0
sS'apache_request_set_etag'
p1720
I0
sS'mb_encoding_aliases'
p1721
I1
sS'variant_imp'
p1722
I0
sS'odbc_foreignkeys'
p1723
I0
sS'mysqli_stmt_affected_rows'
p1724
I0
sS'datefmt_is_lenient '
p1725
I0
sS'link'
p1726
I2
sS'imap_mail_move'
p1727
I0
sS'sybase_affected_rows'
p1728
I0
sS'prev'
p1729
I1
sS'ibase_drop_db'
p1730
I0
sS'mysqli_field_count'
p1731
I0
sS'dom_domimplementationsource_get_domimplementations'
p1732
I0
sS'spl_object_hash'
p1733
I1
sS'mhash_keygen_s2k'
p1734
I4
sS'imagecolorat'
p1735
I0
sS'ldap_err2str'
p1736
I0
sS'msql_field_flags'
p1737
I0
sS'fbsql_next_result'
p1738
I0
sS'constant'
p1739
I1
sS'defined'
p1740
I1
sS'fread'
p1741
I2
sS'date_create'
p1742
I0
sS'is_nan'
p1743
I1
sS'stream_wrapper_unregister'
p1744
I1
sS'pcntl_signal+'
p1745
I2
sS'mysql_create_db'
p1746
I0
sS'stripslashes'
p1747
I1
sS'ldap_8859_to_t61'
p1748
I0
sS'mysqli_autocommit'
p1749
I0
sS'mysqli_close'
p1750
I0
sS'gmp_mul'
p1751
I0
sS'ctype_xdigit'
p1752
I1
sS'pcntl_waitpid+'
p1753
I2
sS'msql_num_fields'
p1754
I0
sS'getservbyport'
p1755
I2
sS'tidy_diagnose'
p1756
I0
sS'enchant_broker_get_error'
p1757
I0
sS'is_finite'
p1758
I1
sS'fbsql_set_transaction'
p1759
I0
sS'mysqli_change_user'
p1760
I0
sS'snmp_read_mib'
p1761
I0
sS'closedir'
p1762
I0
sS'mysqli_connect'
p1763
I0
sS'gmp_init'
p1764
I0
sS'fbsql_pconnect'
p1765
I0
sS'mysqli_stmt_result_metadata'
p1766
I0
sS'soundex'
p1767
I1
sS'posix_setgid'
p1768
I0
sS'apache_request_header_only'
p1769
I0
sS'mcrypt_cbc'
p1770
I0
sS'mcrypt_decrypt'
p1771
I0
sS'copy+'
p1772
I2
sS'leak'
p1773
I0
sS'curl_multi_exec'
p1774
I0
sS'oci_server_version'
p1775
I0
sS'mysqli_get_charset'
p1776
I0
sS'ldap_mod_del'
p1777
I0
sS'mssql_get_last_message'
p1778
I0
sS'fclose'
p1779
I1
sS'xmlwriter_start_document+'
p1780
I1
sS'mysqli_stmt_fetch'
p1781
I0
sS'oci_close'
p1782
I0
sS'imap_list'
p1783
I0
sS'fbsql_fetch_assoc'
p1784
I0
sS'odbc_autocommit'
p1785
I0
sS'imap_append'
p1786
I0
sS'proc_get_status'
p1787
I1
sS'posix_getppid'
p1788
I0
sS'mcrypt_enc_is_block_algorithm'
p1789
I0
sS'get_resource_type'
p1790
I1
sS'imagecopyresampled'
p1791
I0
sS'mssql_fetch_assoc'
p1792
I0
sS'mysql_field_name'
p1793
I0
sS'mssql_data_seek'
p1794
I0
sS'com_load_typelib'
p1795
I0
sS'is_soap_fault'
p1796
I0
sS'mysqli_real_escape_string'
p1797
I0
sS'curl_copy_handle'
p1798
I0
sS'xmlwriter_write_dtd_attlist'
p1799
I3
sS'msql_field_seek'
p1800
I0
sS'locale_get_primary_language '
p1801
I0
sS'posix_getgid'
p1802
I0
sS'dbase_create'
p1803
I0
sS'str_pad+'
p1804
I2
sS'numfmt_set_text_attribute '
p1805
I0
sS'stream_set_write_buffer'
p1806
I0
sS'imap_num_msg'
p1807
I0
sS'apache_request_assbackwards'
p1808
I0
sS'pg_copy_from'
p1809
I0
sS'mysqli_send_query'
p1810
I0
sS'similar_text+'
p1811
I2
sS'apache_request_sub_req_lookup_uri'
p1812
I0
sS'apache_request_args'
p1813
I0
sS'jdtofrench'
p1814
I0
sS'sybase_min_message_severity'
p1815
I0
sS'pg_delete'
p1816
I0
sS'fbsql_query'
p1817
I0
sS'collator_create '
p1818
I0
sS'money_format'
p1819
I2
sS'convert_uudecode'
p1820
I1
sS'odbc_do'
p1821
I0
sS'date_sub'
p1822
I2
sS'mssql_min_message_severity'
p1823
I0
sS'mysqli_prepare'
p1824
I0
sS'sem_get'
p1825
I0
sS'readfile+'
p1826
I1
sS'openssl_pkey_export_to_file'
p1827
I0
sS'mysqli_ssl_set'
p1828
I0
sS'opendir+'
p1829
I1
sS'odbc_fetch_into'
p1830
I0
sS'gmp_setbit'
p1831
I0
sS'array_diff_ukey+'
p1832
I3
sS'imagepng'
p1833
I0
sS'proc_open+'
p1834
I3
sS'msql_result'
p1835
I0
sS'openssl_pkey_get_public'
p1836
I0
sS'pg_affected_rows'
p1837
I0
sS'fbsql_database_password'
p1838
I0
sS'oci_bind_by_name'
p1839
I0
sS'sinh'
p1840
I1
sS'com_create_guid'
p1841
I0
sS'spl_autoload+'
p1842
I1
sS'variant_cast'
p1843
I0
sS'htmlspecialchars+'
p1844
I1
sS'date_default_timezone_set'
p1845
I1
sS'ftp_nb_fput'
p1846
I0
sS'xmlwriter_end_attribute'
p1847
I1
sS'finfo_buffer+'
p1848
I2
sS'xml_set_processing_instruction_handler'
p1849
I2
sS'dom_element_set_attribute_ns'
p1850
I0
sS'mysqli_embedded_server_end'
p1851
I0
sS'dom_document_save'
p1852
I0
sS'oci_lob_truncate'
p1853
I0
sS'apache_request_status_line'
p1854
I0
sS'tidy_repair_file'
p1855
I0
sS'fbsql_rows_fetched'
p1856
I0
sS'mysqli_kill'
p1857
I0
sS'pg_transaction_status'
p1858
I0
sS'hebrevc+'
p1859
I1
sS'pg_last_oid'
p1860
I0
sS'imap_fetchtext'
p1861
I0
sS'symlink'
p1862
I2
sS'fputcsv+'
p1863
I2
sS'dom_document_get_elements_by_tag_name'
p1864
I0
sS'shm_put_var'
p1865
I0
sS'forward_static_call+'
p1866
I1
sS'substr_count+'
p1867
I2
sS'ibase_blob_info'
p1868
I0
sS'next'
p1869
I1
sS'dom_document_create_attribute_ns'
p1870
I0
sS'chr'
p1871
I0
sS'oci_fetch_row'
p1872
I0
sS'tidy_is_xml'
p1873
I0
sS'pspell_config_ignore'
p1874
I0
sS'oci_collection_trim'
p1875
I0
sS'msql_fetch_array'
p1876
I0
sS'posix_setpgid'
p1877
I0
sS'dom_document_create_processing_instruction'
p1878
I0
sS'use_soap_error_handler'
p1879
I0
sS'dom_node_is_same_node'
p1880
I0
sS'sybase_min_client_severity'
p1881
I0
sS'com_event_sink'
p1882
I0
sS'imagealphablending'
p1883
I0
sS'pg_field_is_null'
p1884
I0
sS'fdf_set_submit_form_action'
p1885
I0
sS'posix_getpgid'
p1886
I0
sS'ibase_db_info'
p1887
I0
sS'odbc_fetch_object'
p1888
I0
sS'chdir'
p1889
I1
sS'imagecreate'
p1890
I0
sS'jpeg2wbmp'
p1891
I0
sS'imap_savebody'
p1892
I0
sS'mssql_field_seek'
p1893
I0
sS'fdf_close'
p1894
I0
sS'utf8_decode'
p1895
I1
sS'pspell_config_runtogether'
p1896
I0
sS'bcmod'
p1897
I0
sS'gmp_random'
p1898
I0
sS'hexdec'
p1899
I1
sS'apache_setenv'
p1900
I0
sS'apache_request_set_keepalive'
p1901
I0
sS'oci_lob_import'
p1902
I0
sS'sqlite_close'
p1903
I0
sS'ftp_get_option'
p1904
I0
sS'openssl_x509_free'
p1905
I0
sS'fprintf'
p1906
I0
sS'xmlwriter_write_element_ns+'
p1907
I4
sS'mb_ereg_match+'
p1908
I2
sS'mysql_fetch_row'
p1909
I0
sS'tan'
p1910
I1
sS'date_create_from_format+'
p1911
I2
sS'tidy_get_output'
p1912
I0
sS'feof'
p1913
I1
sS'pspell_config_repl'
p1914
I0
sS'imap_ping'
p1915
I0
sS'pspell_new_config'
p1916
I0
sS'mysqli_data_seek'
p1917
I0
sS'oci_num_rows'
p1918
I0
sS'pcntl_exec+'
p1919
I1
sS'mysqli_options'
p1920
I0
sS'msql_pconnect'
p1921
I0
sS'posix_get_last_error'
p1922
I0
sS'imagegd2'
p1923
I0
sS'quoted_printable_encode'
p1924
I1
sS'array_keys+'
p1925
I1
sS'ftp_set_option'
p1926
I0
sS'shmop_open'
p1927
I0
sS'mysql_free_result'
p1928
I0
sS'variant_idiv'
p1929
I0
sS'mysql_field_type'
p1930
I0
sS'ctype_cntrl'
p1931
I1
sS'imap_rfc822_parse_adrlist'
p1932
I0
sS'tidy_access_count'
p1933
I0
sS'curl_setopt'
p1934
I0
sS'sybase_field_seek'
p1935
I0
sS'locale_get_display_name '
p1936
I0
sS'imagecolorclosest'
p1937
I0
sS'xml_set_start_namespace_decl_handler'
p1938
I2
sS'date_sunrise+'
p1939
I1
sS'fbsql_list_dbs'
p1940
I0
sS'crash'
p1941
I0
sS'assert_options+'
p1942
I1
sS'fbsql_commit'
p1943
I0
sS'imagechar'
p1944
I0
sS'dba_delete'
p1945
I0
sS'rewinddir'
p1946
I0
sS'xsl_xsltprocessor_transform_to_xml'
p1947
I0
sS'xmlrpc_server_register_introspection_callback'
p1948
I0
sS'apache_exec_uri'
p1949
I0
sS'rmdir+'
p1950
I1
sS'ftp_rename'
p1951
I0
sS'odbc_longreadlen'
p1952
I0
sS'openssl_open'
p1953
I0
sS'checkdate'
p1954
I3
sS'gmp_sqrtrem'
p1955
I0
sS'wddx_serialize_vars'
p1956
I0
sS'grapheme_strrpos'
p1957
I0
sS'mysql_field_len'
p1958
I0
sS'apachelog'
p1959
I0
sS'ftp_fget'
p1960
I0
sS'imagecolormatch'
p1961
I0
sS'datefmt_get_datetype '
p1962
I0
sS'apache_note'
p1963
I0
sS'strcspn+'
p1964
I2
sS'imap_qprint'
p1965
I0
sS'basename+'
p1966
I1
sS'locale_compose'
p1967
I0
sS'mysqli_fetch_array'
p1968
I0
sS'fseek+'
p1969
I2
sS'ldap_get_attributes'
p1970
I0
sS'dom_document_schema_validate_file'
p1971
I0
sS'odbc_primarykeys'
p1972
I0
sS'mysqli_debug'
p1973
I0
sS'fbsql_blob_size'
p1974
I0
sS'ocifetchinto'
p1975
I0
sS'xsl_xsltprocessor_has_exslt_support'
p1976
I0
sS'gethostbyaddr'
p1977
I1
sS'glob+'
p1978
I1
sS'pg_prepare'
p1979
I0
sS'mb_ereg_search'
p1980
I0
sS'variant_cmp'
p1981
I0
sS'decoct'
p1982
I1
sS'is_file'
p1983
I1
sS'mysql_pconnect'
p1984
I0
sS'array_combine'
p1985
I2
sS'image_type_to_extension+'
p1986
I1
sS'apache_request_boundary'
p1987
I0
sS'token_get_all'
p1988
I1
sS'msql_affected_rows'
p1989
I0
sS'bzerrstr'
p1990
I0
sS'oci_free_statement'
p1991
I0
sS'ftp_delete'
p1992
I0
sS'fgetcsv+'
p1993
I1
sS'min+'
p1994
I1
sS'png2wbmp'
p1995
I0
sS'sqlite_fetch_array'
p1996
I0
sS'birdstep_freeresult'
p1997
I0
sS'curl_init'
p1998
I0
sS'stripos+'
p1999
I2
sS'dom_domimplementationlist_item'
p2000
I0
sS'get_class_methods'
p2001
I1
sS'dom_document_create_element_ns'
p2002
I0
sS'enchant_broker_list_dicts'
p2003
I0
sS'curl_multi_remove_handle'
p2004
I0
sS'dba_handlers'
p2005
I0
sS'getallheaders'
p2006
I0
sS'method_exists'
p2007
I2
sS'ldap_dn2ufn'
p2008
I0
sS'parse_ini_file+'
p2009
I1
sS'mssql_connect'
p2010
I0
sS'strcasecmp'
p2011
I2
sS'imagecolorexactalpha'
p2012
I0
sS'enchant_broker_init'
p2013
I0
sS'ibase_fetch_object'
p2014
I0
sS'dom_namelist_get_namespace_uri'
p2015
I0
sS'curl_exec'
p2016
I0
sS'dom_text_replace_whole_text'
p2017
I0
sS'fdf_enum_values'
p2018
I0
sS'imagecolorresolve'
p2019
I0
sS'mysqli_connect_errno'
p2020
I0
sS'mcrypt_generic_init'
p2021
I0
sS'mysqli_get_warnings'
p2022
I0
sS'odbc_close'
p2023
I0
sS'locale_accept_from_http'
p2024
I0
sS'mysqli_enable_reads_from_master'
p2025
I0
sS'pg_meta_data'
p2026
I0
sS'lcfirst'
p2027
I1
sS'array_intersect_assoc+'
p2028
I2
sS'birdstep_close'
p2029
I0
sS'variant_pow'
p2030
I0
sS'socket_shutdown'
p2031
I0
sS'com_print_typeinfo'
p2032
I0
sS'mb_decode_mimeheader'
p2033
I1
sS'xmlwriter_end_comment'
p2034
I1
sS'ocigetbufferinglob'
p2035
I0
sS'pg_send_query_params'
p2036
I0
sS'snmp2_real_walk'
p2037
I0
sS'fdf_remove_item'
p2038
I0
sS'odbc_exec'
p2039
I0
sS'oci_field_scale'
p2040
I0
sS'ibase_blob_open'
p2041
I0
sS'bzcompress'
p2042
I0
sS'ibase_errmsg'
p2043
I0
sS'ftp_site'
p2044
I0
sS'gmstrftime+'
p2045
I1
sS'xml_parser_set_option'
p2046
I3
sS'mysqli_stmt_data_seek'
p2047
I0
sS'fbsql_database'
p2048
I0
sS'filectime'
p2049
I1
sS'dba_exists'
p2050
I0
sS'odbc_field_type'
p2051
I0
sS'shmop_write'
p2052
I0
sS'idate+'
p2053
I1
sS'tidy_error_count'
p2054
I0
sS'xml_set_end_namespace_decl_handler'
p2055
I2
sS'sybase_data_seek'
p2056
I0
sS'imagerotate'
p2057
I0
sS'strval'
p2058
I1
sS'mb_output_handler'
p2059
I2
sS'fbsql_create_clob'
p2060
I0
sS'collator_get_error_message '
p2061
I0
sS'dba_replace'
p2062
I0
sS'getenv'
p2063
I1
sS'soap_encode_to_zval'
p2064
I0
sS'mb_strtoupper+'
p2065
I1
sS'imagepsslantfont'
p2066
I0
sS'dom_characterdata_delete_data'
p2067
I0
sS'socket_connect'
p2068
I0
sS'frenchtojd'
p2069
I0
sS'imagegammacorrect'
p2070
I0
sS'imagecolorclosesthwb'
p2071
I0
sS'imagecreatefromgif'
p2072
I0
sS'oci_lob_eof'
p2073
I0
sS'xsl_xsltprocessor_register_php_functions'
p2074
I0
sS'enchant_dict_get_error'
p2075
I0
sS'socket_recvfrom'
p2076
I0
sS'imap_listscan'
p2077
I0
sS'dom_domimplementationsource_get_domimplementation'
p2078
I0
sS'pspell_save_wordlist'
p2079
I0
sS'socket_clear_error'
p2080
I0
sS'apache_request_send_fd_length'
p2081
I0
sS'pg_connect'
p2082
I0
sS'mysqli_stmt_errno'
p2083
I0
sS'ftp_mdtm'
p2084
I0
sS'shm_has_var'
p2085
I0
sS'dns_get_mx) /* {{{ */'
p2086
I0
sS'fbsql_field_seek'
p2087
I0
sS'dns_check_record+'
p2088
I1
sS'time_sleep_until'
p2089
I1
sS'imap_renamemailbox'
p2090
I0
sS'mysqli_rpl_parse_enabled'
p2091
I0
sS'dom_document_validate'
p2092
I0
sS'pg_field_num'
p2093
I0
sS'oci_new_collection'
p2094
I0
sS'fdf_get_version'
p2095
I0
sS'odbc_statistics'
p2096
I0
sS'pg_tty'
p2097
I0
sS'imap_mail_copy'
p2098
I0
sS'xmlwriter_start_pi'
p2099
I2
sS'mysql_db_query'
p2100
I0
sS'xmlwriter_end_pi'
p2101
I1
sS'sha1_file+'
p2102
I1
sS'ereg+'
p2103
I2
sS'imagestringup'
p2104
I0
sS'xmlwriter_write_dtd+'
p2105
I2
sS'register_shutdown_function'
p2106
I0
sS'filter_var_array+'
p2107
I1
sS'is_dir'
p2108
I1
sS'mysqli_multi_query'
p2109
I0
sS'dom_node_is_supported'
p2110
I0
sS'mb_ereg_search_pos'
p2111
I0
sS'vprintf+'
p2112
I1
sS'mysqli_embedded_server_start'
p2113
I0
sS'imap_gc'
p2114
I0
sS'var_export+'
p2115
I1
sS'ob_clean'
p2116
I0
sS'juliantojd'
p2117
I0
sS'stream_resolve_include_path'
p2118
I1
sS'fbsql_fetch_array'
p2119
I0
sS'ezmlm_hash'
p2120
I1
sS'fbsql_set_autostart_info'
p2121
I0
sS'bcdiv'
p2122
I0
sS'str_word_count+'
p2123
I1
sS'key'
p2124
I1
sS'ftp_pasv'
p2125
I0
sS'odbc_next_result'
p2126
I0
sS'ming_useConstants'
p2127
I0
sS'pg_field_type_oid'
p2128
I0
sS'imap_errors'
p2129
I0
sS'mb_substr_count+'
p2130
I2
sS'array_key_exists'
p2131
I2
sS'msql_fetch_field'
p2132
I0
sS'fbsql_password'
p2133
I0
sS'mcrypt_enc_is_block_algorithm_mode'
p2134
I0
sS'octdec'
p2135
I1
sS'mssql_guid_string'
p2136
I0
sS'mcrypt_enc_get_block_size'
p2137
I0
sS'mysqli_connect_error'
p2138
I0
sS'imagecolordeallocate'
p2139
I0
sS'mb_stristr+'
p2140
I2
sS'imap_mail_compose'
p2141
I0
sS'odbc_close_all'
p2142
I0
sS'chmod'
p2143
I2
sS'msql_field_len'
p2144
I0
sS'timezone_name_get'
p2145
I1
sS'dom_node_replace_child'
p2146
I0
sS'ldap_start_tls'
p2147
I0
sS'imageftbbox'
p2148
I0
sS'snmp2_get'
p2149
I0
sS'mysqli_stmt_send_long_data'
p2150
I0
sS'dom_document_rename_node'
p2151
I0
sS'mysqli_rpl_query_type'
p2152
I0
sS'apache_request_sub_req_lookup_file'
p2153
I0
sS'oci_lob_erase'
p2154
I0
sS'xmlwriter_end_dtd_attlist'
p2155
I1
sS'split+'
p2156
I2
sS'mb_strwidth+'
p2157
I1
sS'xmlwriter_text'
p2158
I2
sS'gmp_gcd'
p2159
I0
sS'sort+'
p2160
I1
sS'assert'
p2161
I1
sS'apache_request_setup_client_block'
p2162
I0
sS'levenshtein'
p2163
I0
sS'sqlite_rewind'
p2164
I0
sS'numfmt_get_text_attribute '
p2165
I0
sS'ldap_error'
p2166
I0
sS'func_get_arg'
p2167
I1
sS'pg_escape_string'
p2168
I0
sS'array_intersect_ukey+'
p2169
I3
sS'dom_document_create_comment'
p2170
I0
sS'xmlwriter_end_dtd_element'
p2171
I1
sS'ltrim+'
p2172
I1
sS'mysqli_get_server_version'
p2173
I0
sS'ldap_connect'
p2174
I0
sS'vsprintf+'
p2175
I1
sS'dom_xpath_evaluate'
p2176
I0
sS'pg_copy_to'
p2177
I0
sS'mysqli_poll'
p2178
I0
sS'getdir'
p2179
I0
sS'fdf_add_doc_javascript'
p2180
I0
sS'dba_insert'
p2181
I0
sS'ming_keypress'
p2182
I0
sS'birdstep_connect'
p2183
I0
sS'wddx_packet_end'
p2184
I0
sS'xmlwriter_write_attribute_ns'
p2185
I5
sS'imap_base64'
p2186
I0
sS'rawurldecode'
p2187
I1
sS'apache_request_headers_in'
p2188
I0
sS'msg_set_queue'
p2189
I0
sS'openssl_pkey_free'
p2190
I0
sS'imagecolorclosestalpha'
p2191
I0
sS'stream_context_set_params'
p2192
I2
sS'mysql_errno'
p2193
I0
sS'pg_port'
p2194
I0
sS'imap_uid'
p2195
I0
sS'ftp_cdup'
p2196
I0
sS'fileinode'
p2197
I1
sS'fbsql_field_name'
p2198
I0
sS'ctype_upper'
p2199
I1
sS'xmlwriter_start_attribute'
p2200
I2
sS'function_exists'
p2201
I1
sS'msql_drop_db'
p2202
I0
sS'fbsql_result'
p2203
I0
sS'datefmt_get_calendar '
p2204
I0
sS'ftp_alloc'
p2205
I0
sS'iconv_strpos'
p2206
I0
sS'stream_get_meta_data'
p2207
I1
sS'datefmt_get_timetype '
p2208
I0
sS'gmdate+'
p2209
I1
sS'xmlwriter_start_dtd_attlist'
p2210
I2
sS'bzdecompress'
p2211
I0
sS'xsl_xsltprocessor_set_parameter'
p2212
I0
sS'gregoriantojd'
p2213
I0
sS'dom_domconfiguration_can_set_parameter'
p2214
I0
sS'apache_request_should_client_block'
p2215
I0
sS'imagecreatefromgd2'
p2216
I0
sS'krsort+'
p2217
I1
sS'xml_get_current_byte_index'
p2218
I1
sS'rsort+'
p2219
I1
sS'imagesetpixel'
p2220
I0
sS'grapheme_strpos'
p2221
I0
sS'filter_input+'
p2222
I2
sS'convert_uuencode'
p2223
I1
sS'mysqli_reap_async_query'
p2224
I0
sS'define+'
p2225
I2
sS'apache_request_err_headers_out'
p2226
I0
sS'gzcompress+'
p2227
I1
sS'dom_domstringlist_item'
p2228
I0
sS'ibase_affected_rows'
p2229
I0
sS'apache_request_internal_redirect'
p2230
I0
sS'config_get_hash'
p2231
I0
sS'enchant_broker_describe'
p2232
I0
sS'enchant_dict_is_in_session'
p2233
I0
sS'msql_field_name'
p2234
I0
sS'parse_url+'
p2235
I1
sS'imagejpeg '
p2236
I0
sS'dom_node_lookup_prefix'
p2237
I0
sS'ibase_server_info'
p2238
I0
sS'pspell_config_data_dir'
p2239
I0
sS'sqlite_current'
p2240
I0
sS'mysqli_stmt_bind_param'
p2241
I0
sS'tidy_get_html'
p2242
I0
sS'imap_create'
p2243
I0
sS'ldap_unbind'
p2244
I0
sS'stream_context_get_params'
p2245
I1
sS'sybase_fetch_array'
p2246
I0
sS'var_dump+'
p2247
I1
sS'oci_result'
p2248
I0
sS'mb_ereg_search_regs'
p2249
I0
sS'tidy_get_status'
p2250
I0
sS'posix_geteuid'
p2251
I0
sS'oci_lob_append'
p2252
I0
sS'shm_remove_var'
p2253
I0
sS'socket_select'
p2254
I0
sS'mb_detect_encoding+'
p2255
I1
sS'apache_request_read_body'
p2256
I0
sS'mysqli_stmt_reset'
p2257
I0
sS'ftp_rmdir'
p2258
I0
sS'sqlite_create_aggregate'
p2259
I0
sS'xml_set_notation_decl_handler'
p2260
I2
sS'pg_unescape_bytea'
p2261
I0
sS'xmlwriter_start_comment'
p2262
I1
sS'mysql_list_processes'
p2263
I0
sS'pspell_config_personal'
p2264
I0
sS'odbc_field_name'
p2265
I0
sS'pclose'
p2266
I1
sS'strtok+'
p2267
I1
sS'array_merge+'
p2268
I1
sS'snmp_get_valueretrieval'
p2269
I0
sS'grapheme_strripos'
p2270
I0
sS'apache_request_basic_auth_pw'
p2271
I0
sS'sybase_connect'
p2272
I0
sS'fdf_open_string'
p2273
I0
sS'apache_request_remote_host'
p2274
I0
sS'get_meta_tags+'
p2275
I1
sS'phpinfo'
p2276
I0
sS'jddayofweek'
p2277
I0
sS'sybase_db_query'
p2278
I0
sS'session_register+'
p2279
I1
sS'imap_lsub_full'
p2280
I0
sS'mssql_init'
p2281
I0
sS'mysqli_stmt_error'
p2282
I0
sS'fdf_create'
p2283
I0
sS'socket_accept'
p2284
I0
sS'idn_to_utf8'
p2285
I0
sS'mysqli_character_set_name'
p2286
I0
sS'xmlwriter_end_cdata'
p2287
I1
sS'locale_parse'
p2288
I0
sS'dom_attr_is_id'
p2289
I0
sS'php_strip_whitespace'
p2290
I1
sS'oci_set_edition'
p2291
I0
sS'mysqli_stmt_prepare'
p2292
I0
sS'str_replace+'
p2293
I3
sS'ming_setSWFCompression'
p2294
I0
sS'strspn+'
p2295
I2
sS'sybase_fetch_object'
p2296
I0
sS'gmp_pow'
p2297
I0
sS'collator_get_sort_key '
p2298
I0
sS'dom_domconfiguration_get_parameter'
p2299
I0
sS'tidy_parse_file'
p2300
I0
sS'dom_namednodemap_set_named_item_ns'
p2301
I0
sS'ftp_connect'
p2302
I0
sS'long2ip'
p2303
I1
sS'fbsql_fetch_object'
p2304
I0
sS'collator_get_strength '
p2305
I0
sS'array_sum'
p2306
I1
sS'socket_create_pair'
p2307
I0
sS'ibase_blob_get'
p2308
I0
sS'curl_errno'
p2309
I0
sS'dbase_replace_record'
p2310
I0
sS'tidy_is_xhtml'
p2311
I0
sS'mb_strripos+'
p2312
I2
sS'xmlwriter_start_dtd+'
p2313
I2
sS'dom_characterdata_substring_data'
p2314
I0
sS'filesize'
p2315
I1
sS'mysql_data_seek'
p2316
I0
sS'log10'
p2317
I1
sS'ctype_punct'
p2318
I1
sS'gmp_sub'
p2319
I0
sS'user_sprintf'
p2320
I0
sS'imap_check'
p2321
I0
sS'odbc_columns'
p2322
I0
sS'sql_regcase'
p2323
I1
sS'class_parents+'
p2324
I1
sS'natcasesort'
p2325
I1
sS'ftp_ssl_connect'
p2326
I0
sS'imap_utf7_decode'
p2327
I0
sS'wddx_packet_start'
p2328
I0
sS'gmp_xor'
p2329
I0
sS'cal_to_jd'
p2330
I0
sS'pg_fetch_object'
p2331
I0
sS'odbc_num_fields'
p2332
I0
sS'cal_days_in_month'
p2333
I0
sS'mysql_escape_string'
p2334
I0
sS'imagepsloadfont'
p2335
I0
sS'curl_multi_getcontent'
p2336
I0
sS'pg_parameter_status'
p2337
I0
sS'imap_clearflag_full'
p2338
I0
sS'log1p'
p2339
I1
sS'gmp_abs'
p2340
I0
sS'normalizer_normalize '
p2341
I0
sS'numfmt_create '
p2342
I0
sS'dom_element_has_attribute'
p2343
I0
sS'strstr+'
p2344
I2
sS'pg_lo_unlink'
p2345
I0
sS'mb_strpos+'
p2346
I2
sS'stream_set_timeout+'
p2347
I2
sS'xmlrpc_server_destroy'
p2348
I0
sS'mysqli_more_results'
p2349
I0
sS'odbc_binmode'
p2350
I0
sS'trim+'
p2351
I1
sS'fpassthru'
p2352
I1
sS'fbsql_table_name'
p2353
I0
sS'tidy_get_release'
p2354
I0
sS'ibase_gen_id'
p2355
I0
sS'virtual'
p2356
I0
sS'bin2hex'
p2357
I1
sS'dom_characterdata_append_data'
p2358
I0
sS'mysqli_disable_rpl_parse'
p2359
I0
sS'oci_define_by_name'
p2360
I0
sS'msql_field_table'
p2361
I0
sS'oci_fetch'
p2362
I0
sS'dom_text_is_whitespace_in_element_content'
p2363
I0
sS'array_uintersect_uassoc+'
p2364
I4
sS'readlink'
p2365
I1
sS'date_sun_info'
p2366
I3
sS'pg_connection_reset'
p2367
I0
sS'odbc_tableprivileges'
p2368
I0
sS'xml_parser_get_option'
p2369
I2
sS'array_pad'
p2370
I3
sS'sqlite_num_fields'
p2371
I0
sS'xsl_xsltprocessor_transform_to_uri'
p2372
I0
sS'variant_neg'
p2373
I0
sS'litespeed_response_headers'
p2374
I0
sS'xmlwriter_write_dtd_entity+'
p2375
I3
sS'tnm_ ##name'
p2376
I0
sS'pg_host'
p2377
I0
sS'imap_fetchbody'
p2378
I0
sS'gd_info'
p2379
I0
s.