(dp0
S'dom_node_get_feature'
p1
I0
sS'sqlite_field_name'
p2
I0
sS'imagecreatefromxpm'
p3
I0
sS'pg_send_query_params'
p4
I0
sS'sleep'
p5
I1
sS'compact+'
p6
I1
sS'imap_rfc822_write_address'
p7
I0
sS'dba_fetch'
p8
I0
sS'ftp_size'
p9
I0
sS'mhash_get_block_size'
p10
I1
sS'array_flip'
p11
I1
sS'eregi_replace'
p12
I3
sS'odbc_fetch_array'
p13
I0
sS'json_last_error'
p14
I0
sS'mysql_connect'
p15
I0
sS'imagefill'
p16
I0
sS'ibase_commit'
p17
I0
sS'tidy_get_root'
p18
I0
sS'localtime'
p19
I0
sS'strftime+'
p20
I1
sS'birdstep_result'
p21
I0
sS'xsl_xsltprocessor_transform_to_doc'
p22
I0
sS'smfi_setreply'
p23
I0
sS'ldap_parse_result '
p24
I0
sS'ucwords'
p25
I1
sS'oci_lob_copy'
p26
I0
sS'imagecreatefromxbm'
p27
I0
sS'ibase_set_event_handler'
p28
I0
sS'socket_listen'
p29
I0
sS'pg_lo_create'
p30
I0
sS'locale_get_all_variants'
p31
I0
sS'grapheme_extract'
p32
I0
sS'mysql_error'
p33
I0
sS'chunk_split +'
p34
I1
sS'date_timestamp_set'
p35
I2
sS'readline_add_history'
p36
I1
sS'imagecolorresolvealpha'
p37
I0
sS'oci_collection_size'
p38
I0
sS'str_repeat'
p39
I2
sS'mysqli_field_seek'
p40
I0
sS'substr_compare+'
p41
I3
sS'stream_context_set_option'
p42
I0
sS'glob+'
p43
I1
sS'asin'
p44
I1
sS'imap_alerts'
p45
I0
sS'easter_days'
p46
I0
sS'urldecode'
p47
I1
sS'ftp_nb_put'
p48
I0
sS'msgfmt_get_locale '
p49
I0
sS'snmp2_walk'
p50
I0
sS'dba_sync'
p51
I0
sS'mysqli_stmt_close'
p52
I0
sS'imap_subscribe'
p53
I0
sS'oci_field_type_raw'
p54
I0
sS'dom_document_adopt_node'
p55
I0
sS'birdstep_autocommit'
p56
I0
sS'numfmt_format '
p57
I0
sS'posix_kill'
p58
I0
sS'strtolower'
p59
I1
sS'variant_and'
p60
I0
sS'mssql_fetch_object'
p61
I0
sS'sqlite_escape_string'
p62
I0
sS'in_array+'
p63
I2
sS'sqlite_has_prev'
p64
I0
sS'iconv_mime_encode'
p65
I0
sS'msgfmt_get_pattern '
p66
I0
sS'exif_read_data'
p67
I0
sS'ctype_graph'
p68
I1
sS'date_diff+'
p69
I2
sS'dom_node_is_default_namespace'
p70
I0
sS'posix_access'
p71
I0
sS'stream_bucket_prepend'
p72
I2
sS'debug_zval_dump+'
p73
I1
sS'preg_match+'
p74
I2
sS'ibase_pconnect'
p75
I0
sS'ldap_set_rebind_proc'
p76
I0
sS'mysqli_insert_id'
p77
I0
sS'recode_string'
p78
I0
sS'pg_send_prepare'
p79
I0
sS'ksort+'
p80
I1
sS'ftok'
p81
I2
sS'imagesetstyle'
p82
I0
sS'mysqli_set_local_infile_handler'
p83
I0
sS'imap_getacl'
p84
I0
sS'xml_get_error_code'
p85
I1
sS'oci_set_client_identifier'
p86
I0
sS'dom_node_get_user_data'
p87
I0
sS'ldap_first_attribute'
p88
I0
sS'mcrypt_module_is_block_algorithm'
p89
I0
sS'image_type_to_extension+'
p90
I1
sS'json_decode'
p91
I0
sS'confirm_extname_compiled'
p92
I0
sS'count+'
p93
I1
sS'image_type_to_mime_type'
p94
I1
sS'apache_request_boundary'
p95
I0
sS'sybase_set_message_handler'
p96
I0
sS'apache_request_send_error_response'
p97
I0
sS'serialize'
p98
I1
sS'mcrypt_module_is_block_mode'
p99
I0
sS'pg_send_query'
p100
I0
sS'odbc_error'
p101
I0
sS'str_split+'
p102
I1
sS'pdo_drivers'
p103
I0
sS'pg_fetch_row'
p104
I0
sS'openssl_dh_compute_key'
p105
I0
sS'pg_client_encoding'
p106
I0
sS'dba_popen'
p107
I0
sS'sybase_unbuffered_query'
p108
I0
sS'mysql_result'
p109
I0
sS'collator_compare '
p110
I0
sS'array_diff_assoc+'
p111
I2
sS'mysql_fetch_object'
p112
I0
sS'continuity_virtual'
p113
I0
sS'pg_field_prtlen'
p114
I0
sS'end'
p115
I1
sS'mysqli_warning_count'
p116
I0
sS'snmp3_set'
p117
I0
sS'rewind'
p118
I1
sS'posix_getuid'
p119
I0
sS'numfmt_set_symbol '
p120
I0
sS'pg_escape_bytea'
p121
I0
sS'msgfmt_create '
p122
I0
sS'stream_socket_get_name'
p123
I2
sS'openssl_public_decrypt'
p124
I0
sS'dom_text_split_text'
p125
I0
sS'dom_document_relaxNG_validate_file'
p126
I0
sS'resourcebundle_get_error_code '
p127
I0
sS'smfi_chgheader'
p128
I0
sS'array_multisort+'
p129
I1
sS'mcrypt_module_get_algo_block_size'
p130
I0
sS'ldap_error '
p131
I0
sS'sybase_get_last_message'
p132
I0
sS'oci_lob_tell'
p133
I0
sS'mcrypt_get_key_size'
p134
I0
sS'mssql_result'
p135
I0
sS'ibase_execute'
p136
I0
sS'mssql_query'
p137
I0
sS'openssl_digest'
p138
I0
sS'apache_request_auth_type'
p139
I0
sS'litespeed_request_headers'
p140
I0
sS'snmp3_walk'
p141
I0
sS'fnmatch+'
p142
I2
sS'socket_create'
p143
I0
sS'bzerror'
p144
I0
sS'openssl_x509_check_private_key'
p145
I0
sS'xmlwriter_write_cdata'
p146
I2
sS'set_magic_quotes_runtime'
p147
I1
sS'filter_id'
p148
I1
sS'sqlite_open'
p149
I0
sS'oci_fetch_object'
p150
I0
sS'sqlite2_create_function'
p151
I0
sS'curl_close'
p152
I0
sS'ftp_nb_fget'
p153
I0
sS'datefmt_format '
p154
I0
sS'sqlite_array_query'
p155
I0
sS'imap_sort'
p156
I0
sS'array_replace_recursive+'
p157
I1
sS'mysql_get_host_info'
p158
I0
sS'ctype_lower'
p159
I1
sS'imagefilledarc'
p160
I0
sS'dom_document_create_element_ns'
p161
I0
sS'hash+'
p162
I2
sS'user_filter_nop'
p163
I0
sS'mysqli_num_rows'
p164
I0
sS'openssl_csr_export_to_file'
p165
I0
sS'xmlwriter_write_comment'
p166
I2
sS'imagegd'
p167
I0
sS'ldap_sort'
p168
I0
sS'imagedestroy'
p169
I0
sS'array_intersect+'
p170
I2
sS'date_interval_create_from_date_string'
p171
I1
sS'mcrypt_enc_get_algorithms_name'
p172
I0
sS'mysqli_info'
p173
I0
sS'ldap_parse_reference'
p174
I0
sS'ftp_exec'
p175
I0
sS'pspell_add_to_session'
p176
I0
sS'apache_request_mtime'
p177
I0
sS'idn_to_ascii'
p178
I0
sS'snmp_set_valueretrieval'
p179
I0
sS'ftp_login'
p180
I0
sS'sqlite_create_function'
p181
I0
sS'imageloadfont'
p182
I0
sS'sqlite_udf_encode_binary'
p183
I0
sS'pcntl_alarm'
p184
I1
sS'apache_request_update_mtime'
p185
I0
sS'curl_multi_info_read'
p186
I0
sS'pspell_suggest'
p187
I0
sS'html_entity_decode+'
p188
I1
sS'decbin'
p189
I1
sS'curl_multi_init'
p190
I0
sS'dom_element_has_attribute_ns'
p191
I0
sS'nsapi_request_headers'
p192
I0
sS'mb_strrpos+'
p193
I2
sS'apache_request_content_length'
p194
I0
sS'log+'
p195
I1
sS'openssl_sign'
p196
I0
sS'apache_request_hostname'
p197
I0
sS'pg_connection_status'
p198
I0
sS'oci_lob_save'
p199
I0
sS'htmlentities+'
p200
I1
sS'openssl_pkcs7_verify'
p201
I0
sS'numfmt_get_pattern '
p202
I0
sS'ldap_count_entries'
p203
I0
sS'preg_filter+'
p204
I3
sS'posix_seteuid'
p205
I0
sS'openssl_pkey_new'
p206
I0
sS'oci_error'
p207
I0
sS'call_user_func+'
p208
I1
sS'apache_get_version'
p209
I0
sS'proc_nice'
p210
I1
sS'numfmt_get_symbol '
p211
I0
sS'sscanf+'
p212
I2
sS'mysqli_fetch_lengths '
p213
I0
sS'dom_namednodemap_get_named_item'
p214
I0
sS'pg_lo_read_all'
p215
I0
sS'imageconvolution'
p216
I0
sS'imagelayereffect'
p217
I0
sS'sem_acquire'
p218
I0
sS'dom_element_set_id_attribute_node'
p219
I0
sS'odbc_fetch_row'
p220
I0
sS'msgfmt_get_error_code '
p221
I0
sS'mysql_stat'
p222
I0
sS'array_slice+'
p223
I2
sS'mcrypt_ecb'
p224
I0
sS'xmlrpc_encode_request'
p225
I0
sS'date_format'
p226
I2
sS'mysqli_field_tell'
p227
I0
sS'xmlwriter_start_dtd_element'
p228
I2
sS'pg_lo_read'
p229
I0
sS'ldap_get_entries'
p230
I0
sS'ibase_errcode'
p231
I0
sS'smfi_settimeout'
p232
I0
sS'imap_unsubscribe'
p233
I0
sS'dom_node_is_equal_node'
p234
I0
sS'birdstep_off_autocommit'
p235
I0
sS'forward_static_call_array'
p236
I2
sS'date_date_set'
p237
I4
sS'ereg_replace'
p238
I3
sS'mssql_select_db'
p239
I0
sS'session_set_save_handler'
p240
I0
sS'imagepscopyfont'
p241
I0
sS'snmp2_getnext'
p242
I0
sS'apache_request_no_cache'
p243
I0
sS'variant_mul'
p244
I0
sS'mssql_fetch_assoc'
p245
I0
sS'settype'
p246
I2
sS'variant_cat'
p247
I0
sS'min+'
p248
I1
sS'apache_request_send_http_trace'
p249
I0
sS'iptcembed+'
p250
I2
sS'sqlite_query'
p251
I0
sS'xmlwriter_full_end_element'
p252
I1
sS'mysqli_stmt_sqlstate'
p253
I0
sS'xmlwriter_end_dtd_entity'
p254
I1
sS'preg_replace+'
p255
I3
sS'apache_request_discard_request_body'
p256
I0
sS'snmp3_getnext'
p257
I0
sS'strip_tags+'
p258
I1
sS'dom_element_set_attribute_node'
p259
I0
sS'ctype_alpha'
p260
I1
sS'readgzfile+'
p261
I1
sS'xml_error_string'
p262
I1
sS'ibase_prepare'
p263
I0
sS'natsort'
p264
I1
sS'max+'
p265
I1
sS'openssl_cipher_iv_length'
p266
I0
sS'base64_decode+'
p267
I1
sS'pg_convert'
p268
I0
sS'wddx_serialize_vars'
p269
I0
sS'call_user_method_array'
p270
I3
sS'tidy_get_config'
p271
I0
sS'imagecreatefromwbmp'
p272
I0
sS'ldap_next_entry'
p273
I0
sS'stream_set_read_buffer'
p274
I2
sS'hash_final+'
p275
I1
sS'imagecopyresized'
p276
I0
sS'posix_isatty'
p277
I0
sS'exif_imagetype'
p278
I0
sS'mysql_list_tables'
p279
I0
sS'sqlite_unbuffered_query'
p280
I0
sS'msg_receive'
p281
I0
sS'hash_hmac+'
p282
I3
sS'ibase_param_info'
p283
I0
sS'oci_lob_is_equal'
p284
I0
sS'shm_detach'
p285
I0
sS'dl'
p286
I1
sS'posix_getgrgid'
p287
I0
sS'birdstep_fieldnum'
p288
I0
sS'mcrypt_list_algorithms'
p289
I0
sS'implode+'
p290
I1
sS'escapeshellcmd'
p291
I1
sS'pcntl_setpriority+'
p292
I1
sS'ip2long'
p293
I1
sS'snmp2_set'
p294
I0
sS'libxml_set_streams_context'
p295
I1
sS'tidy_clean_repair'
p296
I0
sS'openssl_open'
p297
I0
sS'imap_createmailbox'
p298
I0
sS'ldap_delete'
p299
I0
sS'pspell_store_replacement'
p300
I0
sS'smfi_addheader'
p301
I0
sS'odbc_connect'
p302
I0
sS'imagefilledrectangle'
p303
I0
sS'xml_get_current_line_number'
p304
I1
sS'dom_domconfiguration_set_parameter'
p305
I0
sS'proc_close'
p306
I1
sS'apache_request_headers_out'
p307
I0
sS'mb_stripos+'
p308
I2
sS'birdstep_commit'
p309
I0
sS'mcrypt_encrypt'
p310
I0
sS'number_format+'
p311
I1
sS'apache_request_basic_http_header'
p312
I0
sS'rad2deg'
p313
I1
sS'iconv_get_encoding'
p314
I0
sS'posix_setegid'
p315
I0
sS'extract+'
p316
I1
sS'date_default_timezone_get'
p317
I0
sS'imagecopymerge'
p318
I0
sS'session_unregister'
p319
I1
sS'apache_request_server_port'
p320
I0
sS'apache_request_sub_req_method_uri'
p321
I0
sS'dom_element_set_id_attribute'
p322
I0
sS'snmp_set_enum_print'
p323
I0
sS'dom_element_get_elements_by_tag_name_ns'
p324
I0
sS'class_implements+'
p325
I1
sS'wordwrap+'
p326
I1
sS'xmlrpc_get_type'
p327
I0
sS'ibase_blob_import'
p328
I0
sS'imagecharup'
p329
I0
sS'openssl_pkcs7_encrypt'
p330
I0
sS'strnatcasecmp'
p331
I2
sS'sort+'
p332
I1
sS'imap_delete'
p333
I0
sS'pg_lo_import'
p334
I0
sS'dom_document_savexml'
p335
I0
sS'apache_request_rputs'
p336
I0
sS'stream_context_set_params'
p337
I2
sS'pg_port'
p338
I0
sS'gethostbynamel'
p339
I1
sS'stream_wrapper_register+'
p340
I2
sS'imap_8bit'
p341
I0
sS'oci_collection_trim'
p342
I0
sS'file_get_contents+'
p343
I1
sS'posix_setuid'
p344
I0
sS'bzerrno'
p345
I0
sS'ibase_num_params'
p346
I0
sS'variant_xor'
p347
I0
sS'oci_lob_export'
p348
I0
sS'variant_fix'
p349
I0
sS'dom_document_xinclude'
p350
I0
sS'snmp_set_oid_output_format'
p351
I0
sS'stream_context_get_params'
p352
I1
sS'xml_parse+'
p353
I2
sS'ldap_mod_add'
p354
I0
sS'ldap_first_reference'
p355
I0
sS'msgfmt_format '
p356
I0
sS'json_encode'
p357
I0
sS'mb_preferred_mime_name'
p358
I1
sS'apache_request_send_http_options'
p359
I0
sS'mysqli_store_result'
p360
I0
sS'array_diff_uassoc+'
p361
I3
sS'get_headers+'
p362
I1
sS'imagettfbbox'
p363
I0
sS'mysqli_fetch_array '
p364
I0
sS'iconv_substr'
p365
I0
sS'apache_request_content_type'
p366
I0
sS'numfmt_get_error_message '
p367
I0
sS'iptcparse'
p368
I1
sS'resourcebundle_get '
p369
I0
sS'mb_decode_mimeheader'
p370
I1
sS'ldap_add'
p371
I0
sS'mssql_fetch_row'
p372
I0
sS'posix_setsid'
p373
I0
sS'tanh'
p374
I1
sS'xmlrpc_server_register_method'
p375
I0
sS'sqlite_error_string'
p376
I0
sS'mssql_field_type'
p377
I0
sS'rename+'
p378
I2
sS'array_replace+'
p379
I1
sS'solid_fetch_prev'
p380
I0
sS'str_rot13'
p381
I1
sS'xmlrpc_is_fault'
p382
I0
sS'dom_element_remove_attribute_ns'
p383
I0
sS'ibase_free_event_handler'
p384
I0
sS'mysql_client_encoding'
p385
I0
sS'pg_get_result'
p386
I0
sS'pcntl_sigwaitinfo+'
p387
I1
sS'bcsub'
p388
I0
sS'mysqli_fetch_assoc '
p389
I0
sS'get_browser'
p390
I0
sS'register_tick_function'
p391
I0
sS'oci_commit'
p392
I0
sS'apache_request_proxyreq'
p393
I0
sS'ibase_delete_user'
p394
I0
sS'imap_undelete'
p395
I0
sS'date_timezone_set'
p396
I2
sS'msgfmt_get_error_message '
p397
I0
sS'ob_flush'
p398
I0
sS'openssl_x509_export'
p399
I0
sS'nl_langinfo'
p400
I1
sS'xmlwriter_end_dtd'
p401
I1
sS'variant_abs'
p402
I0
sS'odbc_execute'
p403
I0
sS'mysqli_next_result'
p404
I0
sS'ibase_trans'
p405
I0
sS'variant_mod'
p406
I0
sS'pspell_new'
p407
I0
sS'dom_document_import_node'
p408
I0
sS'tidy_repair_string'
p409
I0
sS'posix_strerror'
p410
I0
sS'variant_set_type'
p411
I0
sS'array_push+'
p412
I2
sS'imagecreatefrompng'
p413
I0
sS'finfo_file+'
p414
I2
sS'mhash'
p415
I0
sS'date_parse_from_format'
p416
I2
sS'stream_socket_recvfrom+'
p417
I2
sS'imap_mutf7_to_utf8'
p418
I0
sS'image2wbmp'
p419
I0
sS'openssl_x509_export_to_file'
p420
I0
sS'pg_query'
p421
I0
sS'mb_strlen+'
p422
I1
sS'iconv_strrpos'
p423
I0
sS'mysql_get_proto_info'
p424
I0
sS'mysqli_fetch_all '
p425
I0
sS'xsl_xsltprocessor_import_stylesheet'
p426
I0
sS'is_float'
p427
I1
sS'xmlwriter_write_raw'
p428
I2
sS'iconv_mime_decode'
p429
I0
sS'odbc_field_len'
p430
I0
sS'str_shuffle'
p431
I1
sS'com_variant_create_instance'
p432
I0
sS'xmlwriter_end_document'
p433
I1
sS'ldap_free_result'
p434
I0
sS'xmlwriter_write_pi'
p435
I3
sS'shm_get_var'
p436
I0
sS'pcntl_sigprocmask+'
p437
I2
sS'imagepsbbox'
p438
I0
sS'mysql_insert_id'
p439
I0
sS'enchant_dict_describe'
p440
I0
sS'pg_cancel_query'
p441
I0
sS'com_create_instance'
p442
I0
sS'odbc_tables'
p443
I0
sS'bcpowmod'
p444
I0
sS'ldap_errno'
p445
I0
sS'array_intersect_key+'
p446
I2
sS'mysqli_stmt_init'
p447
I0
sS'hypot'
p448
I2
sS'oci_fetch_assoc'
p449
I0
sS'date_time_set+'
p450
I3
sS'pspell_config_dict_dir'
p451
I0
sS'posix_getsid'
p452
I0
sS'dba_list'
p453
I0
sS'gzfile+'
p454
I1
sS'datefmt_set_calendar '
p455
I0
sS'imagefilledpolygon'
p456
I0
sS'dom_element_get_attribute_node_ns'
p457
I0
sS'array_shift'
p458
I1
sS'sybase_result'
p459
I0
sS'apache_request_set_last_modified'
p460
I0
sS'bindec'
p461
I1
sS'ldap_search'
p462
I0
sS'mcrypt_module_get_supported_key_sizes'
p463
I0
sS'mb_ereg_replace+'
p464
I3
sS'date_modify'
p465
I2
sS'xml_set_default_handler'
p466
I2
sS'mysqli_stmt_bind_result'
p467
I0
sS'ibase_connect'
p468
I0
sS'pcntl_sigtimedwait+'
p469
I1
sS'acos'
p470
I1
sS'unlink+'
p471
I1
sS'mysqli_thread_id'
p472
I0
sS'stream_get_line+'
p473
I2
sS'tempnam'
p474
I2
sS'array_merge_recursive+'
p475
I1
sS'convert_cyr_string'
p476
I3
sS'imagepsfreefont'
p477
I0
sS'fsockopen+'
p478
I1
sS'ibase_wait_event'
p479
I0
sS'xmlwriter_start_attribute_ns'
p480
I4
sS'resourcebundle_get_error_message '
p481
I0
sS'is_resource'
p482
I1
sS'enchant_broker_dict_exists'
p483
I0
sS'oci_parse'
p484
I0
sS'iterator_count'
p485
I1
sS'mysqli_get_cache_stats '
p486
I0
sS'imap_deletemailbox'
p487
I0
sS'ldap_rename'
p488
I0
sS'ldap_compare '
p489
I0
sS'round+'
p490
I1
sS'ucfirst'
p491
I1
sS'lchgrp'
p492
I2
sS'date_parse'
p493
I1
sS'resourcebundle_locales '
p494
I0
sS'msg_stat_queue'
p495
I0
sS'socket_getsockname'
p496
I0
sS'ini_restore'
p497
I1
sS'reset'
p498
I1
sS'dom_node_lookup_namespace_uri'
p499
I0
sS'collator_asort '
p500
I0
sS'exif_tagname'
p501
I0
sS'oci_field_type'
p502
I0
sS'imagecolorstotal'
p503
I0
sS'imap_mail'
p504
I0
sS'enchant_broker_free'
p505
I0
sS'mysqli_stmt_store_result'
p506
I0
sS'mssql_bind'
p507
I0
sS'xml_parser_free'
p508
I1
sS'disk_free_space'
p509
I1
sS'bzread'
p510
I0
sS'mysql_fetch_field'
p511
I0
sS'ob_gzhandler'
p512
I2
sS'mysqli_get_client_version'
p513
I0
sS'sqlite_fetch_column_types'
p514
I0
sS'sybase_min_server_severity'
p515
I0
sS'apache_child_terminate'
p516
I0
sS'iconv_strlen'
p517
I0
sS'sqlite_factory'
p518
I0
sS'floor'
p519
I1
sS'numfmt_set_attribute '
p520
I0
sS'cal_from_jd'
p521
I0
sS'imageistruecolor'
p522
I0
sS'imagefontwidth'
p523
I0
sS'strtr+'
p524
I2
sS'numfmt_parse '
p525
I0
sS'stream_set_blocking'
p526
I2
sS'addcslashes'
p527
I2
sS'mysql_num_fields'
p528
I0
sS'easter_date'
p529
I0
sS'ldap_get_values_len'
p530
I0
sS'continuity_request_headers'
p531
I0
sS'socket_close'
p532
I0
sS'mysql_field_table'
p533
I0
sS'mail+'
p534
I3
sS'pg_get_notify'
p535
I0
sS'birdstep_exec'
p536
I0
sS'stream_bucket_new'
p537
I2
sS'oci_internal_debug'
p538
I0
sS'stripcslashes'
p539
I1
sS'xmlwriter_set_indent_string'
p540
I2
sS'mcrypt_generic'
p541
I0
sS'dom_document_create_entity_reference'
p542
I0
sS'openssl_private_decrypt'
p543
I0
sS'finfo_set_flags'
p544
I2
sS'socket_last_error'
p545
I0
sS'str_getcsv+'
p546
I1
sS'sqlite_libversion'
p547
I0
sS'pg_result_error_field'
p548
I0
sS'dom_namelist_get_name'
p549
I0
sS'grapheme_strstr'
p550
I0
sS'session_destroy'
p551
I0
sS'mb_eregi_replace+'
p552
I3
sS'imagepsextendfont'
p553
I0
sS'variant_div'
p554
I0
sS'odbc_columnprivileges'
p555
I0
sS'unpack'
p556
I2
sS'mssql_free_statement'
p557
I0
sS'hash_file+'
p558
I2
sS'mysql_list_fields'
p559
I0
sS'mysql_fetch_assoc'
p560
I0
sS'com_method_handler'
p561
I0
sS'posix_getgrnam'
p562
I0
sS'openssl_csr_get_subject'
p563
I0
sS'dom_domerrorhandler_handle_error'
p564
I0
sS'mysqli_select_db '
p565
I0
sS'mssql_execute'
p566
I0
sS'pg_query_params'
p567
I0
sS'hash_update_stream+'
p568
I2
sS'array_uintersect_assoc+'
p569
I3
sS'dom_element_set_attribute'
p570
I0
sS'pg_lo_export'
p571
I0
sS'pspell_config_save_repl'
p572
I0
sS'timezone_name_from_abbr+'
p573
I1
sS'apache_request_proto_num'
p574
I0
sS'curl_getinfo'
p575
I0
sS'pg_untrace'
p576
I0
sS'snmp_set_quick_print'
p577
I0
sS'pg_last_notice '
p578
I0
sS'stream_filter_append+'
p579
I2
sS'xsl_xsltprocessor_get_parameter'
p580
I0
sS'openssl_public_encrypt'
p581
I0
sS'preg_match_all+'
p582
I3
sS'imap_mime_header_decode'
p583
I0
sS'spliti+'
p584
I2
sS'pcntl_wifstopped'
p585
I1
sS'cosh'
p586
I1
sS'pg_fetch_all_columns'
p587
I0
sS'mcrypt_module_open'
p588
I0
sS'odbc_cursor'
p589
I0
sS'imagefilltoborder'
p590
I0
sS'odbc_procedurecolumns'
p591
I0
sS'dom_element_set_attribute_node_ns'
p592
I0
sS'numfmt_get_locale '
p593
I0
sS'imap_rfc822_parse_headers'
p594
I0
sS'openlog'
p595
I3
sS'strtotime+'
p596
I1
sS'oci_lob_write_temporary'
p597
I0
sS'current'
p598
I1
sS'apache_request_some_auth_required'
p599
I0
sS'imagesetbrush'
p600
I0
sS'dom_xpath_register_ns'
p601
I0
sS'stream_select+'
p602
I4
sS'posix_ttyname'
p603
I0
sS'ftp_chdir'
p604
I0
sS'ini_set'
p605
I2
sS'xmlwriter_start_element'
p606
I2
sS'oci_lob_seek'
p607
I0
sS'msgfmt_parse_message '
p608
I0
sS'enchant_broker_free_dict'
p609
I0
sS'mysqli_init'
p610
I0
sS'fgetss+'
p611
I1
sS'variant_date_from_timestamp'
p612
I0
sS'mysqli_stmt_num_rows'
p613
I0
sS'sqlite_num_rows'
p614
I0
sS'mb_strstr+'
p615
I2
sS'stream_copy_to_stream+'
p616
I2
sS'shmop_close'
p617
I0
sS'sem_remove'
p618
I0
sS'ftp_nlist'
p619
I0
sS'grapheme_stristr'
p620
I0
sS'ldap_read'
p621
I0
sS'mb_send_mail+'
p622
I3
sS'hash_init+'
p623
I1
sS'prev'
p624
I1
sS'imagettftext'
p625
I0
sS'mhash_keygen_s2k'
p626
I4
sS'ibase_service_detach'
p627
I0
sS'oci_free_descriptor'
p628
I0
sS'shm_attach'
p629
I0
sS'mysql_create_db'
p630
I0
sS'oci_password_change'
p631
I0
sS'gettimeofday'
p632
I0
sS'sqlite_fetch_object'
p633
I0
sS'sha1+'
p634
I1
sS'tidy_get_head'
p635
I0
sS'dom_node_set_user_data'
p636
I0
sS'apache_request_filename'
p637
I0
sS'intl_error_name '
p638
I0
sS'apache_request_log_error'
p639
I0
sS'openssl_csr_get_public_key'
p640
I0
sS'getprotobynumber'
p641
I1
sS'apache_request_send_http_header'
p642
I0
sS'imap_fetchstructure'
p643
I0
sS'numfmt_get_error_code '
p644
I0
sS'gzuncompress+'
p645
I1
sS'ibase_rollback_ret'
p646
I0
sS'feof'
p647
I1
sS'quoted_printable_decode'
p648
I1
sS'chroot'
p649
I1
sS'imagestring'
p650
I0
sS'sem_release'
p651
I0
sS'pg_get_pid'
p652
I0
sS'atan'
p653
I1
sS'disk_total_space'
p654
I1
sS'posix_getpgrp'
p655
I0
sS'sqlite_single_query'
p656
I0
sS'ftp_raw'
p657
I0
sS'highlight_file+'
p658
I1
sS'locale_parse'
p659
I0
sS'hash_hmac_file+'
p660
I3
sS'ftp_put'
p661
I0
sS'pg_fetch_assoc'
p662
I0
sS'datefmt_get_pattern '
p663
I0
sS'ob_end_flush'
p664
I0
sS'imap_expunge'
p665
I0
sS'ibase_close'
p666
I0
sS'imageantialias'
p667
I0
sS'mb_ereg_search_setpos'
p668
I1
sS'locale_get_display_region '
p669
I0
sS'quotemeta'
p670
I1
sS'atanh'
p671
I1
sS'imagepalettecopy'
p672
I0
sS'xsl_xsltprocessor_set_profiling'
p673
I0
sS'pg_tty'
p674
I0
sS'exif_thumbnail'
p675
I0
sS'mysql_affected_rows'
p676
I0
sS'pg_field_name'
p677
I0
sS'imap_open'
p678
I0
sS'pg_field_type'
p679
I0
sS'bcscale'
p680
I0
sS'ldap_mod_replace'
p681
I0
sS'crypt+'
p682
I1
sS'sybase_num_rows'
p683
I0
sS'apache_request_protocol'
p684
I0
sS'oci_lob_erase'
p685
I0
sS'mb_strcut+'
p686
I2
sS'dns_check_record+'
p687
I1
sS'collator_set_strength '
p688
I0
sS'xml_set_object'
p689
I2
sS'openssl_x509_checkpurpose'
p690
I0
sS'posix_getgroups'
p691
I0
sS'mysql_unbuffered_query'
p692
I0
sS'smfi_setflags'
p693
I0
sS'parse_ini_string+'
p694
I1
sS'rtrim+'
p695
I1
sS'sqlite_busy_timeout'
p696
I0
sS'pg_put_line'
p697
I0
sS'posix_getcwd'
p698
I0
sS'mysqli_free_result '
p699
I0
sS'array_chunk+'
p700
I2
sS'mysql_get_client_info'
p701
I0
sS'variant_add'
p702
I0
sS'soap_encode_to_xml'
p703
I0
sS'mysqli_set_local_infile_default'
p704
I0
sS'finfo_close'
p705
I1
sS'sql_regcase'
p706
I1
sS'apache_request_method'
p707
I0
sS'imageellipse'
p708
I0
sS'mcrypt_enc_get_modes_name'
p709
I0
sS'dom_element_set_id_attribute_ns'
p710
I0
sS'sqlite_rewind'
p711
I0
sS'array_map+'
p712
I2
sS'strnatcmp'
p713
I2
sS'mb_strtolower+'
p714
I1
sS'mssql_free_result'
p715
I0
sS'mysqli_stmt_attr_set'
p716
I0
sS'imagefontheight'
p717
I0
sS'sqlite_next'
p718
I0
sS'ctype_print'
p719
I1
sS'stream_filter_prepend+'
p720
I2
sS'apache_request_method_number'
p721
I0
sS'array_walk_recursive+'
p722
I2
sS'sqlite_exec'
p723
I0
sS'stream_context_set_default'
p724
I1
sS'dba_optimize'
p725
I0
sS'odbc_result'
p726
I0
sS'ord'
p727
I1
sS'expm1'
p728
I1
sS'xml_set_external_entity_ref_handler'
p729
I2
sS'oci_lob_read'
p730
I0
sS'session_encode'
p731
I0
sS'oci_set_client_info'
p732
I0
sS'pg_options'
p733
I0
sS'mcrypt_module_close'
p734
I0
sS'array_uintersect+'
p735
I3
sS'pspell_clear_session'
p736
I0
sS'pg_pconnect'
p737
I0
sS'ftp_nb_get'
p738
I0
sS'jdtojewish'
p739
I0
sS'dom_document_save_html'
p740
I0
sS'nl2br+'
p741
I1
sS'numfmt_get_attribute '
p742
I0
sS'idn_to_utf8'
p743
I0
sS'oci_collection_max'
p744
I0
sS'birdstep_fetch'
p745
I0
sS'array_count_values'
p746
I1
sS'mysqli_connect_error '
p747
I0
sS'mcrypt_module_self_test'
p748
I0
sS'dom_characterdata_replace_data'
p749
I0
sS'imagedashedline'
p750
I0
sS'oci_lob_write'
p751
I0
sS'mb_split+'
p752
I2
sS'odbc_setoption'
p753
I0
sS'imagefilledellipse'
p754
I0
sS'imap_list_full'
p755
I0
sS'dom_node_clone_node'
p756
I0
sS'apache_lookup_uri'
p757
I0
sS'sqlite_udf_decode_binary'
p758
I0
sS'enchant_dict_add_to_personal'
p759
I0
sS'stream_socket_sendto+'
p760
I2
sS'mysqli_stat'
p761
I0
sS'pg_result_error'
p762
I0
sS'xmlwriter_write_element+'
p763
I2
sS'apache_request_status'
p764
I0
sS'stream_socket_accept+'
p765
I1
sS'date_offset_get'
p766
I1
sS'imap_utf8_to_mutf7'
p767
I0
sS'mb_convert_kana+'
p768
I1
sS'mb_ereg_search_init+'
p769
I1
sS'dirname'
p770
I1
sS'ibase_blob_add'
p771
I0
sS'filter_var_array+'
p772
I1
sS'ob_iconv_handler'
p773
I0
sS'imap_num_recent'
p774
I0
sS'dom_node_remove_child'
p775
I0
sS'imap_set_quota'
p776
I0
sS'wddx_deserialize'
p777
I0
sS'sqlite_prev'
p778
I0
sS'xmlrpc_server_call_method'
p779
I0
sS'mysql_info'
p780
I0
sS'dom_document_get_element_by_id'
p781
I0
sS'imagecolorexact'
p782
I0
sS'touch+'
p783
I1
sS'dom_document_get_elements_by_tag_name_ns'
p784
I0
sS'realpath'
p785
I1
sS'mysqli_stmt_free_result '
p786
I0
sS'array_diff_key+'
p787
I2
sS'unixtojd'
p788
I0
sS'openssl_get_cipher_methods'
p789
I0
sS'strpbrk'
p790
I2
sS'pfsockopen+'
p791
I1
sS'openssl_encrypt'
p792
I0
sS'xmlrpc_encode'
p793
I0
sS'ftp_nb_continue'
p794
I0
sS'mysqli_rollback'
p795
I0
sS'mysqli_report'
p796
I0
sS'pspell_check'
p797
I0
sS'gettype'
p798
I1
sS'oci_field_size'
p799
I0
sS'curl_error'
p800
I0
sS'snmpset'
p801
I0
sS'version_compare+'
p802
I2
sS'vfprintf'
p803
I0
sS'curl_multi_close'
p804
I0
sS'mssql_fetch_array'
p805
I0
sS'date_isodate_set+'
p806
I3
sS'mysqli_refresh'
p807
I0
sS'nsapi_virtual'
p808
I0
sS'dom_namednodemap_get_named_item_ns'
p809
I0
sS'xmlwriter_open_uri'
p810
I1
sS'mssql_fetch_field'
p811
I0
sS'ini_get'
p812
I1
sS'stream_get_contents+'
p813
I1
sS'is_string'
p814
I1
sS'imap_msgno'
p815
I0
sS'imagerectangle'
p816
I0
sS'imap_gc'
p817
I0
sS'ldap_first_entry'
p818
I0
sS'posix_getpwnam'
p819
I0
sS'imagecreatetruecolor'
p820
I0
sS'fscanf+'
p821
I2
sS'pg_free_result'
p822
I0
sS'pcntl_wstopsig'
p823
I1
sS'oci_field_precision'
p824
I0
sS'parse_str+'
p825
I1
sS'apache_request_auth_name'
p826
I0
sS'jdmonthname'
p827
I0
sS'ocifetchstatement'
p828
I0
sS'pg_close'
p829
I0
sS'xmlrpc_server_create'
p830
I0
sS'mb_strrchr+'
p831
I2
sS'socket_clear_error'
p832
I0
sS'xmlrpc_set_type'
p833
I0
sS'ldap_explode_dn'
p834
I0
sS'utf8_encode'
p835
I1
sS'ocisetbufferinglob'
p836
I0
sS'continuity_response_headers'
p837
I0
sS'sqlite_last_error'
p838
I0
sS'mssql_field_name'
p839
I0
sS'setlocale+'
p840
I2
sS'locale_canonicalize'
p841
I0
sS'ibase_backup'
p842
I0
sS'imagecreatefromjpeg'
p843
I0
sS'tidy_config_count'
p844
I0
sS'ldap_get_option '
p845
I0
sS'socket_write'
p846
I0
sS'date+'
p847
I1
sS'posix_getlogin'
p848
I0
sS'dom_document_create_attribute'
p849
I0
sS'apache_request_path_info'
p850
I0
sS'mysql_real_escape_string'
p851
I0
sS'getopt+'
p852
I1
sS'odbc_rollback'
p853
I0
sS'pg_fetch_result'
p854
I0
sS'xmlwriter_start_dtd_entity'
p855
I3
sS'ibase_add_user'
p856
I0
sS'ibase_name_result'
p857
I0
sS'oci_execute'
p858
I0
sS'imagecolorat'
p859
I0
sS'enchant_dict_store_replacement'
p860
I0
sS'ibase_fetch_row'
p861
I0
sS'jdtogregorian'
p862
I0
sS'ibase_blob_close'
p863
I0
sS'locale_get_primary_language  '
p864
I0
sS'sqlite_valid'
p865
I0
sS'openssl_pkcs7_decrypt'
p866
I0
sS'array_values'
p867
I1
sS'pow'
p868
I2
sS'mysqli_stmt_more_results'
p869
I0
sS'jdtojulian'
p870
I0
sS'locale_filter_matches'
p871
I0
sS'mssql_pconnect'
p872
I0
sS'ldap_bind'
p873
I0
sS'apache_request_uri'
p874
I0
sS'dom_document_create_cdatasection'
p875
I0
sS'imagegrabscreen'
p876
I0
sS'fgets+'
p877
I1
sS'mysqli_commit'
p878
I0
sS'collator_set_attribute '
p879
I0
sS'variant_not'
p880
I0
sS'openssl_csr_sign'
p881
I0
sS'date_interval_format'
p882
I2
sS'gzopen+'
p883
I2
sS'apache_request_meets_conditions'
p884
I0
sS'odbc_result_all'
p885
I0
sS'bcadd'
p886
I0
sS'sqlite_fetch_single'
p887
I0
sS'bccomp'
p888
I0
sS'dom_namednodemap_remove_named_item'
p889
I0
sS'stream_filter_remove'
p890
I1
sS'sqlite_libencoding'
p891
I0
sS'imagewbmp'
p892
I0
sS'posix_uname'
p893
I0
sS'pg_connection_busy'
p894
I0
sS'ibase_blob_create'
p895
I0
sS'sybase_select_db'
p896
I0
sS'odbc_procedures'
p897
I0
sS'pg_update'
p898
I0
sS'mkdir+'
p899
I1
sS'mysql_field_seek'
p900
I0
sS'ctype_space'
p901
I1
sS'socket_recv'
p902
I0
sS'mcrypt_enc_get_iv_size'
p903
I0
sS'flock+'
p904
I2
sS'ibase_num_rows '
p905
I0
sS'mysqli_stmt_construct'
p906
I0
sS'odbc_free_result'
p907
I0
sS'print_r+'
p908
I1
sS'stream_is_local'
p909
I1
sS'apache_request_is_initial_req'
p910
I0
sS'stream_context_get_options'
p911
I1
sS'pg_ping'
p912
I0
sS'dom_node_normalize'
p913
I0
sS'dom_userdatahandler_handle'
p914
I0
sS'intl_get_error_message '
p915
I0
sS'oci_new_cursor'
p916
I0
sS'sqlite_last_insert_rowid'
p917
I0
sS'oci_collection_element_assign'
p918
I0
sS'intl_is_failure '
p919
I0
sS'timezone_open'
p920
I1
sS'mcrypt_get_iv_size'
p921
I0
sS'array_fill'
p922
I3
sS'apache_request_get_client_block'
p923
I0
sS'dom_document_create_document_fragment'
p924
I0
sS'array_unique+'
p925
I1
sS'enchant_dict_add_to_session'
p926
I0
sS'mysqli_get_proto_info'
p927
I0
sS'user_printf'
p928
I0
sS'posix_mknod'
p929
I0
sS'mcrypt_cfb'
p930
I0
sS'jdtounix'
p931
I0
sS'chgrp'
p932
I2
sS'mb_decode_numericentity'
p933
I3
sS'snmp3_get'
p934
I0
sS'pg_insert'
p935
I0
sS'iconv_mime_decode_headers'
p936
I0
sS'oci_bind_array_by_name'
p937
I0
sS'is_scalar'
p938
I1
sS'odbc_gettypeinfo'
p939
I0
sS'snmpwalk'
p940
I0
sS'apache_reset_timeout'
p941
I0
sS'oci_lob_size'
p942
I0
sS'imagepsencodefont'
p943
I0
sS'ftp_pwd'
p944
I0
sS'msg_get_queue'
p945
I0
sS'chmod'
p946
I2
sS'oci_new_descriptor'
p947
I0
sS'proc_terminate+'
p948
I1
sS'imap_headers'
p949
I0
sS'collator_get_locale '
p950
I0
sS'ibase_num_fields'
p951
I0
sS'imap_close'
p952
I0
sS'imagetypes'
p953
I0
sS'dom_node_insert_before'
p954
I0
sS'is_long'
p955
I1
sS'fgetc'
p956
I1
sS'locale_get_keywords '
p957
I0
sS'mysql_ping'
p958
I0
sS'oci_set_prefetch'
p959
I0
sS'stream_socket_shutdown'
p960
I2
sS'mb_eregi+'
p961
I2
sS'imagecreatefromstring'
p962
I0
sS'pg_set_client_encoding'
p963
I0
sS'mssql_num_fields'
p964
I0
sS'stream_socket_pair'
p965
I3
sS'smfi_getsymval'
p966
I0
sS'pg_last_error'
p967
I0
sS'ftell'
p968
I1
sS'openssl_random_pseudo_bytes'
p969
I0
sS'tidy_warning_count'
p970
I0
sS'xmlwriter_end_element'
p971
I1
sS'pg_trace'
p972
I0
sS'array_diff+'
p973
I2
sS'pspell_config_create'
p974
I0
sS'file_put_contents+'
p975
I2
sS'mysqli_get_server_info'
p976
I0
sS'ibase_service_attach'
p977
I0
sS'odbc_commit'
p978
I0
sS'imagegrabwindow'
p979
I0
sS'strrev'
p980
I1
sS'stream_socket_enable_crypto+'
p981
I2
sS'ctype_alnum'
p982
I1
sS'xsl_xsltprocessor_remove_parameter'
p983
I0
sS'imap_get_quotaroot'
p984
I0
sS'msg_send'
p985
I0
sS'variant_sub'
p986
I0
sS'array_fill_keys'
p987
I2
sS'dom_import_simplexml'
p988
I1
sS'imagecolorset'
p989
I0
sS'ibase_fetch_assoc'
p990
I0
sS'tidy_parse_string'
p991
I0
sS'session_set_cookie_params+'
p992
I1
sS'ibase_query'
p993
I0
sS'quoted_printable_encode'
p994
I1
sS'posix_times'
p995
I0
sS'readline_completion_function'
p996
I1
sS'pg_lo_close'
p997
I0
sS'mysqli_error '
p998
I0
sS'getimagesize+'
p999
I1
sS'xmlrpc_server_register_introspection_callback'
p1000
I0
sS'rawurlencode'
p1001
I1
sS'imagecreatefromgd2part'
p1002
I0
sS'ob_tidyhandler'
p1003
I0
sS'oci_set_action'
p1004
I0
sS'imagesy'
p1005
I0
sS'imagesx'
p1006
I0
sS'mcrypt_enc_get_key_size'
p1007
I0
sS'addslashes'
p1008
I1
sS'sybase_pconnect'
p1009
I0
sS'apache_request_sub_req_lookup_file'
p1010
I0
sS'imap_reopen'
p1011
I0
sS'call_user_func_array'
p1012
I2
sS'com_get_active_object'
p1013
I0
sS'locale_get_display_language '
p1014
I0
sS'dom_text_replace_whole_text'
p1015
I0
sS'mb_encode_numericentity'
p1016
I3
sS'metaphone+'
p1017
I1
sS'imap_body'
p1018
I0
sS'imagecolorallocatealpha'
p1019
I0
sS'apache_request_send_header_field'
p1020
I0
sS'soundex'
p1021
I1
sS'imagetruecolortopalette'
p1022
I0
sS'pg_dbname'
p1023
I0
sS'oci_statement_type'
p1024
I0
sS'sqlite_seek'
p1025
I0
sS'grapheme_stripos'
p1026
I0
sS'getdate'
p1027
I0
sS'imap_bodystruct'
p1028
I0
sS'linkinfo'
p1029
I1
sS'apache_request_header_only'
p1030
I0
sS'array_intersect_uassoc+'
p1031
I3
sS'imap_headerinfo'
p1032
I0
sS'oci_fetch_all'
p1033
I0
sS'mysql_select_db'
p1034
I0
sS'oci_lob_flush'
p1035
I0
sS'dom_document_schema_validate_xml'
p1036
I0
sS'oci_cancel'
p1037
I0
sS'intval'
p1038
I0
sS'odbc_prepare'
p1039
I0
sS'ftp_fput'
p1040
I0
sS'pg_end_copy'
p1041
I0
sS'mcrypt_module_get_algo_key_size'
p1042
I0
sS'copy+'
p1043
I2
sS'openssl_x509_read'
p1044
I0
sS'ftp_mkdir'
p1045
I0
sS'mcrypt_create_iv'
p1046
I0
sS'pspell_config_mode'
p1047
I0
sS'mysqli_real_connect'
p1048
I0
sS'oci_lob_close'
p1049
I0
sS'xmlwriter_write_dtd_entity+'
p1050
I3
sS'hash_update'
p1051
I2
sS'mcrypt_module_is_block_algorithm_mode'
p1052
I0
sS'mysqli_stmt_next_result'
p1053
I0
sS'mysqli_stmt_attr_get'
p1054
I0
sS'sybase_deadlock_retry_count'
p1055
I0
sS'apache_request_remaining'
p1056
I0
sS'socket_strerror'
p1057
I0
sS'imagefilter'
p1058
I0
sS'dom_element_remove_attribute_node'
p1059
I0
sS'chown'
p1060
I2
sS'oci_set_module_name'
p1061
I0
sS'sin'
p1062
I1
sS'pg_host'
p1063
I0
sS'pcntl_wexitstatus'
p1064
I1
sS'xmlrpc_parse_method_descriptions'
p1065
I0
sS'socket_getpeername'
p1066
I0
sS'mysqli_affected_rows'
p1067
I0
sS'strtotime'
p1068
I0
sS'sybase_fetch_field'
p1069
I0
sS'mysqli_query'
p1070
I0
sS'acosh'
p1071
I1
sS'numfmt_parse_currency '
p1072
I0
sS'snmpget'
p1073
I0
sS'dom_document_relaxNG_validate_xml'
p1074
I0
sS'dom_namednodemap_remove_named_item_ns'
p1075
I0
sS'resourcebundle_create  '
p1076
I0
sS'strptime'
p1077
I2
sS'unserialize'
p1078
I1
sS'mktime'
p1079
I0
sS'sqlite_changes'
p1080
I0
sS'xmlwriter_write_dtd_element'
p1081
I3
sS'posix_initgroups'
p1082
I0
sS'mcrypt_get_block_size'
p1083
I0
sS'imap_get_quota'
p1084
I0
sS'ibase_rollback'
p1085
I0
sS'time_nanosleep'
p1086
I2
sS'strtoupper'
p1087
I1
sS'enchant_broker_request_pwl_dict'
p1088
I0
sS'ibase_commit_ret'
p1089
I0
sS'apache_request_send_fd '
p1090
I0
sS'fwrite+'
p1091
I2
sS'ftp_close'
p1092
I0
sS'array_walk+'
p1093
I2
sS'preg_replace_callback+'
p1094
I3
sS'dom_document_create_comment'
p1095
I0
sS'urlencode'
p1096
I1
sS'range+'
p1097
I2
sS'array_change_key_case+'
p1098
I1
sS'syslog'
p1099
I2
sS'openssl_pkey_export'
p1100
I0
sS'apache_get_modules'
p1101
I0
sS'mysqli_use_result'
p1102
I0
sS'openssl_pkcs12_export_to_file'
p1103
I0
sS'pg_send_execute'
p1104
I0
sS'hash_update_file+'
p1105
I2
sS'datefmt_parse'
p1106
I0
sS'is_callable+'
p1107
I1
sS'openssl_pkey_get_private'
p1108
I0
sS'mb_strrichr+'
p1109
I2
sS'is_bool'
p1110
I1
sS'variant_eqv'
p1111
I0
sS'apache_response_headers'
p1112
I0
sS'array_udiff+'
p1113
I3
sS'pspell_add_to_personal'
p1114
I0
sS'date_sunset+'
p1115
I1
sS'is_object'
p1116
I1
sS'oci_fetch_array'
p1117
I0
sS'oci_rollback'
p1118
I0
sS'ibase_blob_cancel'
p1119
I0
sS'enchant_dict_check'
p1120
I0
sS'shmop_delete'
p1121
I0
sS'mysql_query'
p1122
I0
sS'get_cfg_var'
p1123
I1
sS'popen'
p1124
I2
sS'snmp3_real_walk'
p1125
I0
sS'apache_request_set_content_length'
p1126
I0
sS'set_include_path'
p1127
I1
sS'mssql_rows_affected'
p1128
I0
sS'posix_setgid'
p1129
I0
sS'shuffle'
p1130
I1
sS'enchant_dict_quick_check'
p1131
I0
sS'openssl_pkcs12_read'
p1132
I0
sS'base64_encode'
p1133
I1
sS'xml_parse_into_struct+'
p1134
I3
sS'deg2rad'
p1135
I1
sS'mysqli_link_construct'
p1136
I0
sS'imagecolortransparent'
p1137
I0
sS'output_add_rewrite_var'
p1138
I2
sS'is_numeric'
p1139
I1
sS'mysql_num_rows'
p1140
I0
sS'xmlwriter_flush+'
p1141
I1
sS'array_filter+'
p1142
I1
sS'socket_create_listen'
p1143
I0
sS'xmlwriter_start_cdata'
p1144
I1
sS'ibase_free_query'
p1145
I0
sS'openssl_pkcs7_sign'
p1146
I0
sS'imap_fetch_overview'
p1147
I0
sS'ftp_systype'
p1148
I0
sS'mysql_fetch_lengths'
p1149
I0
sS'mysqli_real_query'
p1150
I0
sS'pg_result_status'
p1151
I0
sS'imagexbm'
p1152
I0
sS'iterator_to_array+'
p1153
I1
sS'floatval'
p1154
I1
sS'str_ireplace+'
p1155
I3
sS'bcpow'
p1156
I0
sS'msg_remove_queue'
p1157
I0
sS'imagecopymergegray'
p1158
I0
sS'dom_document_create_element'
p1159
I0
sS'sqlite_key'
p1160
I0
sS'mcrypt_enc_self_test'
p1161
I0
sS'wddx_serialize_value'
p1162
I0
sS'curl_setopt_array'
p1163
I0
sS'stristr+'
p1164
I2
sS'xmlwriter_end_comment'
p1165
I1
sS'odbc_specialcolumns'
p1166
I0
sS'openssl_error_string'
p1167
I0
sS'timezone_transitions_get+'
p1168
I1
sS'mysql_drop_db'
p1169
I0
sS'arsort+'
p1170
I1
sS'dom_element_get_attribute_node'
p1171
I0
sS'pg_lo_seek'
p1172
I0
sS'scandir+'
p1173
I1
sS'dom_element_get_attribute'
p1174
I0
sS'gethostbyname'
p1175
I1
sS'setcookie+'
p1176
I1
sS'gzdeflate+'
p1177
I1
sS'dba_close'
p1178
I0
sS'collator_get_error_code '
p1179
I0
sS'normalizer_is_normalized '
p1180
I0
sS'mysqli_stmt_get_warnings'
p1181
I0
sS'openssl_csr_export'
p1182
I0
sS'dom_node_compare_document_position'
p1183
I0
sS'date_timezone_get'
p1184
I1
sS'atan2'
p1185
I2
sS'strripos+'
p1186
I2
sS'pg_execute'
p1187
I0
sS'datefmt_get_locale '
p1188
I0
sS'filter_input_array+'
p1189
I1
sS'pcntl_wifexited'
p1190
I1
sS'dom_string_extend_find_offset16'
p1191
I0
sS'array_splice+'
p1192
I2
sS'apache_request_headers_in'
p1193
I0
sS'locale_get_display_script '
p1194
I0
sS'ftp_chmod'
p1195
I0
sS'exec+'
p1196
I1
sS'posix_getrlimit'
p1197
I0
sS'setrawcookie+'
p1198
I1
sS'msgfmt_format_message '
p1199
I0
sS'pg_set_error_verbosity'
p1200
I0
sS'array_unshift+'
p1201
I2
sS'socket_read'
p1202
I0
sS'imagepolygon'
p1203
I0
sS'token_name'
p1204
I1
sS'simplexml_load_file+'
p1205
I1
sS'stream_bucket_append'
p1206
I2
sS'ibase_blob_echo'
p1207
I0
sS'ob_end_clean'
p1208
I0
sS'mb_substr+'
p1209
I2
sS'grapheme_substr'
p1210
I0
sS'mysqli_sqlstate '
p1211
I0
sS'socket_set_block'
p1212
I0
sS'strcoll'
p1213
I2
sS'mysqli_dump_debug_info'
p1214
I0
sS'ldap_list'
p1215
I0
sS'odbc_field_num'
p1216
I0
sS'pg_lo_tell'
p1217
I0
sS'mssql_close'
p1218
I0
sS'system+'
p1219
I1
sS'shell_exec'
p1220
I1
sS'fmod'
p1221
I2
sS'com_dotnet_create_instance'
p1222
I0
sS'shmop_read'
p1223
I0
sS'cal_info'
p1224
I0
sS'apache_request_run'
p1225
I0
sS'variant_or'
p1226
I0
sS'is_null'
p1227
I1
sS'apache_request_chunked'
p1228
I0
sS'mysqli_get_host_info'
p1229
I0
sS'curl_version'
p1230
I0
sS'openssl_verify'
p1231
I0
sS'gzencode+'
p1232
I1
sS'array_udiff_uassoc+'
p1233
I4
sS'strrchr'
p1234
I2
sS'dom_document_save_html_file'
p1235
I0
sS'mysql_set_charset'
p1236
I0
sS'dba_open'
p1237
I0
sS'com_message_pump'
p1238
I0
sS'mysqli_fetch_field_direct '
p1239
I0
sS'variant_set'
p1240
I0
sS'collator_sort_with_sort_keys '
p1241
I0
sS'dom_node_append_child'
p1242
I0
sS'curl_multi_select'
p1243
I0
sS'locale_get_region  '
p1244
I0
sS'nsapi_response_headers'
p1245
I0
sS'birdstep_rollback'
p1246
I0
sS'oci_collection_element_get'
p1247
I0
sS'array_udiff_assoc+'
p1248
I3
sS'getprotobyname'
p1249
I1
sS'stream_filter_register'
p1250
I2
sS'dom_nodelist_item'
p1251
I0
sS'socket_set_option'
p1252
I0
sS'is_array'
p1253
I1
sS'getservbyname'
p1254
I2
sS'pathinfo+'
p1255
I1
sS'explode+'
p1256
I2
sS'locale_get_display_variant '
p1257
I0
sS'simplexml_load_string+'
p1258
I1
sS'mysql_get_server_info'
p1259
I0
sS'hash_copy'
p1260
I1
sS'dom_characterdata_insert_data'
p1261
I0
sS'pg_field_size'
p1262
I0
sS'usleep'
p1263
I1
sS'dom_element_get_elements_by_tag_name'
p1264
I0
sS'header+'
p1265
I1
sS'ibase_field_info'
p1266
I0
sS'ldap_get_dn '
p1267
I0
sS'getservbyport'
p1268
I2
sS'intl_get_error_code '
p1269
I0
sS'imagesavealpha'
p1270
I0
sS'ctype_digit'
p1271
I1
sS'imagegif'
p1272
I0
sS'locale_lookup'
p1273
I0
sS'socket_bind'
p1274
I0
sS'dom_xpath_query'
p1275
I0
sS'shm_has_var'
p1276
I0
sS'apache_getenv'
p1277
I0
sS'pg_lo_write'
p1278
I0
sS'timezone_location_get'
p1279
I1
sS'import_request_variables+'
p1280
I1
sS'imageinterlace'
p1281
I0
sS'imap_utf7_encode'
p1282
I0
sS'mysqli_result_construct'
p1283
I0
sS'dom_element_get_attribute_ns'
p1284
I0
sS'xmlwriter_output_memory+'
p1285
I1
sS'stream_socket_client+'
p1286
I1
sS'pg_field_table'
p1287
I0
sS'variant_pow'
p1288
I0
sS'array_rand+'
p1289
I1
sS'oci_new_connect'
p1290
I0
sS'ibase_maintain_db'
p1291
I0
sS'socket_send'
p1292
I0
sS'mssql_field_length'
p1293
I0
sS'dom_node_has_attributes'
p1294
I0
sS'count_chars+'
p1295
I1
sS'pg_num_fields'
p1296
I0
sS'pg_fetch_array'
p1297
I0
sS'sqlite_column'
p1298
I0
sS'spl_autoload_call'
p1299
I1
sS'dba_nextkey'
p1300
I0
sS'escapeshellarg'
p1301
I1
sS'datefmt_set_pattern '
p1302
I0
sS'mcrypt_get_cipher_name'
p1303
I0
sS'stream_wrapper_restore'
p1304
I1
sS'xmlwriter_start_element_ns'
p1305
I4
sS'dns_get_record+'
p1306
I1
sS'array_product'
p1307
I1
sS'exp'
p1308
I1
sS'snmp_get_quick_print'
p1309
I0
sS'enchant_broker_set_ordering'
p1310
I0
sS'imap_timeout'
p1311
I0
sS'strpos+'
p1312
I2
sS'sqlite_fetch_all'
p1313
I0
sS'datefmt_set_timezone_id '
p1314
I0
sS'mysqli_ssl_set'
p1315
I0
sS'mysqli_errno'
p1316
I0
sS'apache_request_the_request'
p1317
I0
sS'ldap_next_reference'
p1318
I0
sS'timezone_offset_get'
p1319
I2
sS'pg_fetch_all'
p1320
I0
sS'dba_firstkey'
p1321
I0
sS'bzopen'
p1322
I0
sS'mysqli_get_client_info'
p1323
I0
sS'imagesettile'
p1324
I0
sS'imap_mailboxmsginfo'
p1325
I0
sS'openssl_x509_parse'
p1326
I0
sS'odbc_primarykeys'
p1327
I0
sS'openssl_get_md_methods'
p1328
I0
sS'mssql_fetch_batch'
p1329
I0
sS'convert_uuencode'
p1330
I1
sS'ftp_rawlist'
p1331
I0
sS'imagecolorsforindex'
p1332
I0
sS'sybase_fetch_assoc'
p1333
I0
sS'stream_bucket_make_writeable'
p1334
I1
sS'apache_request_handler'
p1335
I0
sS'posix_getpwuid'
p1336
I0
sS'enchant_broker_get_dict_path'
p1337
I0
sS'imagecolorallocate'
p1338
I0
sS'mb_convert_variables+'
p1339
I3
sS'sybase_query'
p1340
I0
sS'hebrev+'
p1341
I1
sS'substr_replace+'
p1342
I3
sS'openssl_private_encrypt'
p1343
I0
sS'pspell_new_personal'
p1344
I0
sS'xmlrpc_decode_request'
p1345
I0
sS'numfmt_format_currency '
p1346
I0
sS'imagejpeg'
p1347
I0
sS'jewishtojd'
p1348
I0
sS'http_build_query+'
p1349
I1
sS'base_convert'
p1350
I3
sS'filter_has_var'
p1351
I2
sS'tidy_get_html_ver'
p1352
I0
sS'xmlwriter_start_pi'
p1353
I2
sS'imagepstext'
p1354
I0
sS'tidy_get_body'
p1355
I0
sS'mb_encode_mimeheader+'
p1356
I1
sS'pg_num_rows'
p1357
I0
sS'socket_sendto'
p1358
I0
sS'ldap_sasl_bind'
p1359
I0
sS'mb_parse_str+'
p1360
I1
sS'oci_field_name'
p1361
I0
sS'ftp_get'
p1362
I0
sS'apache_request_unparsed_uri'
p1363
I0
sS'mcrypt_list_modes'
p1364
I0
sS'imap_status'
p1365
I0
sS'unregister_tick_function'
p1366
I1
sS'mysqli_stmt_execute'
p1367
I0
sS'bcsqrt'
p1368
I0
sS'mime_content_type'
p1369
I1
sS'array_reverse+'
p1370
I1
sS'odbc_errormsg'
p1371
I0
sS'odbc_pconnect'
p1372
I0
sS'openssl_csr_new'
p1373
I0
sS'apache_request_content_encoding'
p1374
I0
sS'session_register+'
p1375
I1
sS'pack+'
p1376
I1
sS'mb_ereg+'
p1377
I2
sS'mssql_min_error_severity'
p1378
I0
sS'xml_set_element_handler'
p1379
I3
sS'socket_get_option'
p1380
I0
sS'posix_getpid'
p1381
I0
sS'birdstep_fieldname'
p1382
I0
sS'abs '
p1383
I1
sS'mysql_fetch_array'
p1384
I0
sS'apache_request_headers'
p1385
I0
sS'asinh'
p1386
I1
sS'imap_binary'
p1387
I0
sS'oci_collection_assign'
p1388
I0
sS'oci_lob_load'
p1389
I0
sS'date_add'
p1390
I2
sS'htmlspecialchars_decode+'
p1391
I1
sS'tidy_get_error_buffer'
p1392
I0
sS'strrpos+'
p1393
I2
sS'dom_element_remove_attribute'
p1394
I0
sS'odbc_field_scale'
p1395
I0
sS'xmlrpc_server_add_introspection_data'
p1396
I0
sS'ibase_free_result'
p1397
I0
sS'mhash_get_hash_name'
p1398
I1
sS'collator_sort '
p1399
I0
sS'dom_document_normalize_document'
p1400
I0
sS'oci_field_is_null'
p1401
I0
sS'xmlrpc_decode'
p1402
I0
sS'ceil '
p1403
I1
sS'dns_get_mx+'
p1404
I2
sS'error_log+'
p1405
I1
sS'pg_lo_open'
p1406
I0
sS'recode_file'
p1407
I0
sS'passthru+'
p1408
I1
sS'datefmt_create '
p1409
I0
sS'dom_node_lookup_prefix'
p1410
I0
sS'imap_last_error'
p1411
I0
sS'mysqli_stmt_insert_id'
p1412
I0
sS'variant_date_to_timestamp'
p1413
I0
sS'snmpgetnext'
p1414
I0
sS'uasort'
p1415
I2
sS'pcntl_wait+'
p1416
I1
sS'collator_get_attribute '
p1417
I0
sS'set_time_limit'
p1418
I1
sS'uksort'
p1419
I2
sS'bcmul'
p1420
I0
sS'datefmt_get_timetype '
p1421
I0
sS'smfi_delrcpt'
p1422
I0
sS'shmop_size'
p1423
I0
sS'highlight_string+'
p1424
I1
sS'grapheme_strlen'
p1425
I0
sS'xml_get_current_column_number'
p1426
I1
sS'mssql_next_result'
p1427
I0
sS'imagecreatefromgd'
p1428
I0
sS'apache_request_no_local_copy'
p1429
I0
sS'mcrypt_enc_is_block_mode'
p1430
I0
sS'curl_multi_add_handle'
p1431
I0
sS'datefmt_set_lenient '
p1432
I0
sS'shm_remove'
p1433
I0
sS'dom_document_save'
p1434
I0
sS'dechex'
p1435
I1
sS'fflush'
p1436
I1
sS'imagesetthickness'
p1437
I0
sS'mysqli_fetch_field '
p1438
I0
sS'xmlwriter_write_attribute'
p1439
I3
sS'xmlwriter_set_indent'
p1440
I2
sS'ibase_modify_user'
p1441
I0
sS'xml_set_unparsed_entity_decl_handler'
p1442
I2
sS'oci_collection_append'
p1443
I0
sS'lchown'
p1444
I2
sS'session_is_registered'
p1445
I1
sS'enchant_broker_set_dict_path'
p1446
I0
sS'mysql_close'
p1447
I0
sS'mb_strimwidth+'
p1448
I3
sS'is_infinite'
p1449
I1
sS'openssl_pkey_get_details'
p1450
I0
sS'dom_xpath_register_php_functions'
p1451
I0
sS'imagecopy'
p1452
I0
sS'sqlite_close'
p1453
I0
sS'mysql_field_flags'
p1454
I0
sS'imap_thread'
p1455
I0
sS'imap_search'
p1456
I0
sS'array_pop'
p1457
I1
sS'apache_request_bytes_sent'
p1458
I0
sS'dba_key_split'
p1459
I0
sS'ibase_restore'
p1460
I0
sS'tidy_getopt'
p1461
I0
sS'imagearc'
p1462
I0
sS'mssql_num_rows'
p1463
I0
sS'enchant_broker_request_dict'
p1464
I0
sS'ldap_t61_to_8859'
p1465
I0
sS'dom_string_extend_find_offset32'
p1466
I0
sS'array_reduce+'
p1467
I2
sS'imap_setacl'
p1468
I0
sS'datefmt_localtime'
p1469
I0
sS'tidy_get_opt_doc'
p1470
I0
sS'hebrevc+'
p1471
I1
sS'oci_pconnect'
p1472
I0
sS'imagefttext'
p1473
I0
sS'imap_setflag_full'
p1474
I0
sS'oci_num_fields'
p1475
I0
sS'enchant_dict_suggest'
p1476
I0
sS'socket_set_nonblock'
p1477
I0
sS'apache_request_satisfies'
p1478
I0
sS'dom_document_create_text_node'
p1479
I0
sS'msgfmt_parse '
p1480
I0
sS'posix_ctermid'
p1481
I0
sS'iterator_apply+'
p1482
I2
sS'smfi_addrcpt'
p1483
I0
sS'dom_namednodemap_item'
p1484
I0
sS'sybase_free_result'
p1485
I0
sS'array_search+'
p1486
I2
sS'imap_fetchheader'
p1487
I0
sS'ftp_rmdir'
p1488
I0
sS'mcrypt_ofb'
p1489
I0
sS'mcrypt_enc_get_supported_key_sizes'
p1490
I0
sS'preg_quote+'
p1491
I1
sS'oci_lob_rewind'
p1492
I0
sS'mysqli_set_charset'
p1493
I0
sS'mysqli_stmt_param_count'
p1494
I0
sS'pg_select'
p1495
I0
sS'mysql_thread_id'
p1496
I0
sS'smfi_replacebody'
p1497
I0
sS'xml_set_character_data_handler'
p1498
I2
sS'eregi+'
p1499
I2
sS'pg_unescape_bytea'
p1500
I0
sS'dbstmt_constructor'
p1501
I0
sS'mysqli_stmt_error '
p1502
I0
sS'datefmt_get_error_message '
p1503
I0
sS'wddx_add_vars'
p1504
I0
sS'spl_autoload_unregister'
p1505
I1
sS'file+'
p1506
I1
sS'filter_var+'
p1507
I1
sS'sybase_num_fields'
p1508
I0
sS'usort'
p1509
I2
sS'substr+'
p1510
I2
sS'imap_utf8'
p1511
I0
sS'mb_convert_case+'
p1512
I2
sS'mysql_list_dbs'
p1513
I0
sS'apache_request_set_etag'
p1514
I0
sS'mb_encoding_aliases'
p1515
I1
sS'variant_imp'
p1516
I0
sS'odbc_foreignkeys'
p1517
I0
sS'mysqli_stmt_affected_rows'
p1518
I0
sS'datefmt_is_lenient '
p1519
I0
sS'link'
p1520
I2
sS'imap_mail_move'
p1521
I0
sS'sybase_affected_rows'
p1522
I0
sS'ibase_drop_db'
p1523
I0
sS'mysqli_field_count'
p1524
I0
sS'dom_domimplementationsource_get_domimplementations'
p1525
I0
sS'spl_object_hash'
p1526
I1
sS'datefmt_get_timezone_id '
p1527
I0
sS'snmprealwalk'
p1528
I0
sS'ldap_err2str'
p1529
I0
sS'constant'
p1530
I1
sS'fread'
p1531
I2
sS'date_create'
p1532
I0
sS'stream_socket_server+'
p1533
I1
sS'stream_wrapper_unregister'
p1534
I1
sS'pcntl_signal+'
p1535
I2
sS'stripslashes'
p1536
I1
sS'ldap_8859_to_t61'
p1537
I0
sS'mysqli_autocommit'
p1538
I0
sS'mysqli_close'
p1539
I0
sS'preg_split+'
p1540
I2
sS'pcntl_waitpid+'
p1541
I2
sS'tidy_diagnose'
p1542
I0
sS'enchant_broker_get_error'
p1543
I0
sS'is_finite'
p1544
I1
sS'mysqli_change_user'
p1545
I0
sS'snmp_read_mib'
p1546
I0
sS'closedir'
p1547
I0
sS'mysqli_connect'
p1548
I0
sS'stream_supports_lock'
p1549
I1
sS'mysqli_stmt_result_metadata'
p1550
I0
sS'variant_get_type'
p1551
I0
sS'sybase_fetch_row'
p1552
I0
sS'mcrypt_cbc'
p1553
I0
sS'mcrypt_decrypt'
p1554
I0
sS'putenv'
p1555
I1
sS'curl_multi_exec'
p1556
I0
sS'oci_server_version'
p1557
I0
sS'mysqli_get_charset'
p1558
I0
sS'apache_request_request_time'
p1559
I0
sS'ldap_mod_del'
p1560
I0
sS'mssql_get_last_message'
p1561
I0
sS'fclose'
p1562
I1
sS'imagealphablending'
p1563
I0
sS'oci_close'
p1564
I0
sS'imap_list'
p1565
I0
sS'odbc_autocommit'
p1566
I0
sS'imap_append'
p1567
I0
sS'proc_get_status'
p1568
I1
sS'posix_getppid'
p1569
I0
sS'mcrypt_enc_is_block_algorithm'
p1570
I0
sS'mysqli_fetch_object '
p1571
I0
sS'imagecopyresampled'
p1572
I0
sS'oci_connect'
p1573
I0
sS'ibase_db_info'
p1574
I0
sS'mssql_data_seek'
p1575
I0
sS'com_load_typelib'
p1576
I0
sS'is_soap_fault'
p1577
I0
sS'mysqli_real_escape_string'
p1578
I0
sS'curl_copy_handle'
p1579
I0
sS'xmlwriter_write_dtd_attlist'
p1580
I3
sS'posix_getgid'
p1581
I0
sS'str_pad+'
p1582
I2
sS'numfmt_set_text_attribute '
p1583
I0
sS'stream_set_write_buffer'
p1584
I2
sS'imap_num_msg'
p1585
I0
sS'apache_request_assbackwards'
p1586
I0
sS'pg_copy_from'
p1587
I0
sS'similar_text+'
p1588
I2
sS'apache_request_sub_req_lookup_uri'
p1589
I0
sS'apache_request_args'
p1590
I0
sS'jdtofrench'
p1591
I0
sS'mysqli_get_client_stats '
p1592
I0
sS'pg_delete'
p1593
I0
sS'collator_create '
p1594
I0
sS'money_format'
p1595
I2
sS'convert_uudecode'
p1596
I1
sS'date_sub'
p1597
I2
sS'mssql_min_message_severity'
p1598
I0
sS'mysqli_prepare'
p1599
I0
sS'sem_get'
p1600
I0
sS'readfile+'
p1601
I1
sS'openssl_pkey_export_to_file'
p1602
I0
sS'opendir+'
p1603
I1
sS'odbc_fetch_into'
p1604
I0
sS'odbc_data_source'
p1605
I0
sS'array_diff_ukey+'
p1606
I3
sS'imagepng'
p1607
I0
sS'proc_open+'
p1608
I3
sS'openssl_pkey_get_public'
p1609
I0
sS'pg_affected_rows'
p1610
I0
sS'oci_bind_by_name'
p1611
I0
sS'sinh'
p1612
I1
sS'com_create_guid'
p1613
I0
sS'spl_autoload+'
p1614
I1
sS'variant_cast'
p1615
I0
sS'htmlspecialchars+'
p1616
I1
sS'date_default_timezone_set'
p1617
I1
sS'ftp_nb_fput'
p1618
I0
sS'xmlwriter_end_attribute'
p1619
I1
sS'finfo_buffer+'
p1620
I2
sS'xml_set_processing_instruction_handler'
p1621
I2
sS'dom_element_set_attribute_ns'
p1622
I0
sS'openssl_seal'
p1623
I0
sS'mysqli_ping'
p1624
I0
sS'oci_lob_truncate'
p1625
I0
sS'apache_request_status_line'
p1626
I0
sS'tidy_repair_file'
p1627
I0
sS'call_user_method+'
p1628
I2
sS'mysqli_kill'
p1629
I0
sS'pg_transaction_status'
p1630
I0
sS'mcrypt_generic_deinit'
p1631
I0
sS'pg_last_oid'
p1632
I0
sS'mysqli_num_fields'
p1633
I0
sS'fputcsv+'
p1634
I2
sS'dom_document_get_elements_by_tag_name'
p1635
I0
sS'shm_put_var'
p1636
I0
sS'forward_static_call+'
p1637
I1
sS'substr_count+'
p1638
I2
sS'ibase_blob_info'
p1639
I0
sS'next'
p1640
I1
sS'dom_document_create_attribute_ns'
p1641
I0
sS'chr'
p1642
I0
sS'oci_fetch_row'
p1643
I0
sS'tidy_is_xml'
p1644
I0
sS'pspell_config_ignore'
p1645
I0
sS'posix_mkfifo'
p1646
I0
sS'posix_setpgid'
p1647
I0
sS'dom_document_create_processing_instruction'
p1648
I0
sS'use_soap_error_handler'
p1649
I0
sS'dom_node_is_same_node'
p1650
I0
sS'sybase_min_client_severity'
p1651
I0
sS'com_event_sink'
p1652
I0
sS'mysqli_stmt_fetch'
p1653
I0
sS'pg_field_is_null'
p1654
I0
sS'imageline'
p1655
I0
sS'posix_getpgid'
p1656
I0
sS'mysql_field_name'
p1657
I0
sS'odbc_fetch_object'
p1658
I0
sS'chdir'
p1659
I1
sS'imagecreate'
p1660
I0
sS'jpeg2wbmp'
p1661
I0
sS'imap_savebody'
p1662
I0
sS'mssql_field_seek'
p1663
I0
sS'utf8_decode'
p1664
I1
sS'pspell_config_runtogether'
p1665
I0
sS'bcmod'
p1666
I0
sS'hexdec'
p1667
I1
sS'apache_setenv'
p1668
I0
sS'apache_request_set_keepalive'
p1669
I0
sS'oci_lob_import'
p1670
I0
sS'ftp_get_option'
p1671
I0
sS'openssl_x509_free'
p1672
I0
sS'fprintf'
p1673
I0
sS'xmlwriter_write_element_ns+'
p1674
I4
sS'mb_ereg_match+'
p1675
I2
sS'mysql_fetch_row'
p1676
I0
sS'tan'
p1677
I1
sS'date_create_from_format+'
p1678
I2
sS'tidy_get_output'
p1679
I0
sS'datefmt_get_error_code '
p1680
I0
sS'pspell_config_repl'
p1681
I0
sS'imap_ping'
p1682
I0
sS'pspell_new_config'
p1683
I0
sS'mysqli_data_seek'
p1684
I0
sS'oci_num_rows'
p1685
I0
sS'pcntl_exec+'
p1686
I1
sS'mysqli_options'
p1687
I0
sS'posix_get_last_error'
p1688
I0
sS'imagegd2'
p1689
I0
sS'msg_queue_exists'
p1690
I0
sS'array_keys+'
p1691
I1
sS'ftp_set_option'
p1692
I0
sS'shmop_open'
p1693
I0
sS'mysql_free_result'
p1694
I0
sS'mysql_field_type'
p1695
I0
sS'ctype_cntrl'
p1696
I1
sS'imap_rfc822_parse_adrlist'
p1697
I0
sS'tidy_access_count'
p1698
I0
sS'curl_setopt'
p1699
I0
sS'sybase_field_seek'
p1700
I0
sS'locale_get_display_name '
p1701
I0
sS'imagecolorclosest'
p1702
I0
sS'xml_set_start_namespace_decl_handler'
p1703
I2
sS'date_sunrise+'
p1704
I1
sS'assert_options+'
p1705
I1
sS'imagechar'
p1706
I0
sS'dom_namednodemap_set_named_item_ns'
p1707
I0
sS'rewinddir'
p1708
I0
sS'xsl_xsltprocessor_transform_to_xml'
p1709
I0
sS'xml_set_notation_decl_handler'
p1710
I2
sS'rmdir+'
p1711
I1
sS'ftp_rename'
p1712
I0
sS'odbc_longreadlen'
p1713
I0
sS'checkdate'
p1714
I3
sS'mb_strripos+'
p1715
I2
sS'mysql_field_len'
p1716
I0
sS'apachelog'
p1717
I0
sS'ftp_fget'
p1718
I0
sS'imagecolormatch'
p1719
I0
sS'datefmt_get_datetype '
p1720
I0
sS'apache_note'
p1721
I0
sS'strcspn+'
p1722
I2
sS'imap_qprint'
p1723
I0
sS'basename+'
p1724
I1
sS'locale_compose'
p1725
I0
sS'variant_neg'
p1726
I0
sS'ldap_get_attributes'
p1727
I0
sS'grapheme_strripos'
p1728
I0
sS'dom_document_schema_validate_file'
p1729
I0
sS'variant_round'
p1730
I0
sS'mysqli_debug'
p1731
I0
sS'ocifetchinto'
p1732
I0
sS'xsl_xsltprocessor_has_exslt_support'
p1733
I0
sS'gethostbyaddr'
p1734
I1
sS'mysqli_thread_safe'
p1735
I0
sS'pg_prepare'
p1736
I0
sS'mb_ereg_search'
p1737
I0
sS'variant_cmp'
p1738
I0
sS'decoct'
p1739
I1
sS'mysql_pconnect'
p1740
I0
sS'array_combine'
p1741
I2
sS'imap_lsub'
p1742
I0
sS'sybase_close'
p1743
I0
sS'token_get_all'
p1744
I1
sS'bzerrstr'
p1745
I0
sS'oci_free_statement'
p1746
I0
sS'ftp_delete'
p1747
I0
sS'fgetcsv+'
p1748
I1
sS'png2wbmp'
p1749
I0
sS'sqlite_fetch_array'
p1750
I0
sS'birdstep_freeresult'
p1751
I0
sS'curl_init'
p1752
I0
sS'stripos+'
p1753
I2
sS'dom_domimplementationlist_item'
p1754
I0
sS'mysqli_embedded_server_end'
p1755
I0
sS'enchant_broker_list_dicts'
p1756
I0
sS'curl_multi_remove_handle'
p1757
I0
sS'dba_handlers'
p1758
I0
sS'getallheaders'
p1759
I0
sS'apache_request_allowed'
p1760
I0
sS'ldap_dn2ufn'
p1761
I0
sS'parse_ini_file+'
p1762
I1
sS'mssql_connect'
p1763
I0
sS'msgfmt_set_pattern '
p1764
I0
sS'imagecolorexactalpha'
p1765
I0
sS'enchant_broker_init'
p1766
I0
sS'ibase_fetch_object'
p1767
I0
sS'dom_namelist_get_namespace_uri'
p1768
I0
sS'curl_exec'
p1769
I0
sS'imagecolorresolve'
p1770
I0
sS'mysqli_connect_errno'
p1771
I0
sS'mcrypt_generic_init'
p1772
I0
sS'mysqli_get_warnings'
p1773
I0
sS'odbc_close'
p1774
I0
sS'locale_accept_from_http'
p1775
I0
sS'pg_meta_data'
p1776
I0
sS'lcfirst'
p1777
I1
sS'array_intersect_assoc+'
p1778
I2
sS'birdstep_close'
p1779
I0
sS'socket_shutdown'
p1780
I0
sS'com_print_typeinfo'
p1781
I0
sS'pg_result_seek'
p1782
I0
sS'mysqli_get_connection_stats '
p1783
I0
sS'ocigetbufferinglob'
p1784
I0
sS'snmp2_real_walk'
p1785
I0
sS'pg_version'
p1786
I0
sS'odbc_exec'
p1787
I0
sS'oci_field_scale'
p1788
I0
sS'ibase_blob_open'
p1789
I0
sS'bzcompress'
p1790
I0
sS'ibase_errmsg'
p1791
I0
sS'ftp_site'
p1792
I0
sS'gmstrftime+'
p1793
I1
sS'mysqli_stmt_data_seek'
p1794
I0
sS'ldap_next_attribute'
p1795
I0
sS'apache_request_basic_auth_pw'
p1796
I0
sS'dba_exists'
p1797
I0
sS'odbc_field_type'
p1798
I0
sS'shmop_write'
p1799
I0
sS'idate+'
p1800
I1
sS'tidy_error_count'
p1801
I0
sS'xml_set_end_namespace_decl_handler'
p1802
I2
sS'sybase_data_seek'
p1803
I0
sS'mysqli_fetch_row '
p1804
I0
sS'imagerotate'
p1805
I0
sS'strval'
p1806
I1
sS'mb_output_handler'
p1807
I2
sS'collator_get_error_message '
p1808
I0
sS'dba_replace'
p1809
I0
sS'getenv'
p1810
I1
sS'soap_encode_to_zval'
p1811
I0
sS'mb_strtoupper+'
p1812
I1
sS'imagepsslantfont'
p1813
I0
sS'dom_characterdata_delete_data'
p1814
I0
sS'socket_connect'
p1815
I0
sS'frenchtojd'
p1816
I0
sS'imagegammacorrect'
p1817
I0
sS'imagecolorclosesthwb'
p1818
I0
sS'imagecreatefromgif'
p1819
I0
sS'ftp_ssl_connect'
p1820
I0
sS'xsl_xsltprocessor_register_php_functions'
p1821
I0
sS'enchant_dict_get_error'
p1822
I0
sS'socket_recvfrom'
p1823
I0
sS'imap_listscan'
p1824
I0
sS'dom_domimplementationsource_get_domimplementation'
p1825
I0
sS'pspell_save_wordlist'
p1826
I0
sS'apache_request_send_fd_length'
p1827
I0
sS'pg_connect'
p1828
I0
sS'mysqli_stmt_errno'
p1829
I0
sS'ftp_mdtm'
p1830
I0
sS'openssl_decrypt'
p1831
I0
sS'date_timestamp_get'
p1832
I1
sS'time_sleep_until'
p1833
I1
sS'imap_renamemailbox'
p1834
I0
sS'dom_document_validate'
p1835
I0
sS'pg_field_num'
p1836
I0
sS'oci_new_collection'
p1837
I0
sS'odbc_statistics'
p1838
I0
sS'imap_mail_copy'
p1839
I0
sS'mysql_db_query'
p1840
I0
sS'xmlwriter_end_pi'
p1841
I1
sS'sha1_file+'
p1842
I1
sS'ereg+'
p1843
I2
sS'imagestringup'
p1844
I0
sS'mdecrypt_generic'
p1845
I0
sS'xmlwriter_write_dtd+'
p1846
I2
sS'register_shutdown_function'
p1847
I0
sS'oci_free_collection'
p1848
I0
sS'mysqli_multi_query'
p1849
I0
sS'dom_node_is_supported'
p1850
I0
sS'mb_ereg_search_pos'
p1851
I0
sS'vprintf+'
p1852
I1
sS'mysqli_embedded_server_start'
p1853
I0
sS'mysqli_stmt_get_result'
p1854
I0
sS'var_export+'
p1855
I1
sS'ob_clean'
p1856
I0
sS'juliantojd'
p1857
I0
sS'stream_resolve_include_path'
p1858
I1
sS'asort+'
p1859
I1
sS'ezmlm_hash'
p1860
I1
sS'bcdiv'
p1861
I0
sS'str_word_count+'
p1862
I1
sS'key'
p1863
I1
sS'ftp_pasv'
p1864
I0
sS'odbc_next_result'
p1865
I0
sS'pg_field_type_oid'
p1866
I0
sS'imap_errors'
p1867
I0
sS'mb_substr_count+'
p1868
I2
sS'array_key_exists'
p1869
I2
sS'mb_convert_encoding+'
p1870
I2
sS'mcrypt_enc_is_block_algorithm_mode'
p1871
I0
sS'mssql_guid_string'
p1872
I0
sS'mcrypt_enc_get_block_size'
p1873
I0
sS'imagecolordeallocate'
p1874
I0
sS'mb_stristr+'
p1875
I2
sS'imap_mail_compose'
p1876
I0
sS'odbc_close_all'
p1877
I0
sS'pcntl_wifsignaled'
p1878
I1
sS'octdec'
p1879
I1
sS'timezone_name_get'
p1880
I1
sS'dom_node_replace_child'
p1881
I0
sS'ldap_start_tls'
p1882
I0
sS'imageftbbox'
p1883
I0
sS'snmp2_get'
p1884
I0
sS'mysqli_stmt_send_long_data'
p1885
I0
sS'dom_document_rename_node'
p1886
I0
sS'mysqli_stmt_field_count'
p1887
I0
sS'xmlwriter_end_dtd_attlist'
p1888
I1
sS'split+'
p1889
I2
sS'mb_strwidth+'
p1890
I1
sS'xmlwriter_text'
p1891
I2
sS'cos'
p1892
I1
sS'assert'
p1893
I1
sS'apache_request_setup_client_block'
p1894
I0
sS'levenshtein'
p1895
I0
sS'numfmt_get_text_attribute '
p1896
I0
sS'mysqli_more_results'
p1897
I0
sS'array_intersect_ukey+'
p1898
I3
sS'posix_getegid'
p1899
I0
sS'xmlwriter_end_dtd_element'
p1900
I1
sS'ltrim+'
p1901
I1
sS'mysqli_get_server_version'
p1902
I0
sS'ldap_connect'
p1903
I0
sS'vsprintf+'
p1904
I1
sS'dom_xpath_evaluate'
p1905
I0
sS'pg_copy_to'
p1906
I0
sS'mysqli_poll'
p1907
I0
sS'getdir'
p1908
I0
sS'readline_callback_handler_install'
p1909
I2
sS'dba_insert'
p1910
I0
sS'birdstep_connect'
p1911
I0
sS'wddx_packet_end'
p1912
I0
sS'locale_get_script  '
p1913
I0
sS'xmlwriter_write_attribute_ns'
p1914
I5
sS'imap_base64'
p1915
I0
sS'rawurldecode'
p1916
I1
sS'sqrt'
p1917
I1
sS'msg_set_queue'
p1918
I0
sS'openssl_pkey_free'
p1919
I0
sS'imagecolorclosestalpha'
p1920
I0
sS'mysql_errno'
p1921
I0
sS'dom_namednodemap_set_named_item'
p1922
I0
sS'imap_uid'
p1923
I0
sS'ftp_cdup'
p1924
I0
sS'gzinflate+'
p1925
I1
sS'ctype_upper'
p1926
I1
sS'xmlwriter_start_attribute'
p1927
I2
sS'datefmt_get_calendar '
p1928
I0
sS'ftp_alloc'
p1929
I0
sS'iconv_strpos'
p1930
I0
sS'stream_get_meta_data'
p1931
I1
sS'dom_node_has_child_nodes'
p1932
I0
sS'gmdate+'
p1933
I1
sS'xmlwriter_start_dtd_attlist'
p1934
I2
sS'bzdecompress'
p1935
I0
sS'xsl_xsltprocessor_set_parameter'
p1936
I0
sS'gregoriantojd'
p1937
I0
sS'dom_domconfiguration_can_set_parameter'
p1938
I0
sS'apache_request_should_client_block'
p1939
I0
sS'imagecreatefromgd2'
p1940
I0
sS'krsort+'
p1941
I1
sS'xml_get_current_byte_index'
p1942
I1
sS'rsort+'
p1943
I1
sS'imagesetpixel'
p1944
I0
sS'grapheme_strpos'
p1945
I0
sS'filter_input+'
p1946
I2
sS'pcntl_wtermsig'
p1947
I1
sS'mysqli_reap_async_query'
p1948
I0
sS'apache_request_err_headers_out'
p1949
I0
sS'gzcompress+'
p1950
I1
sS'dom_domstringlist_item'
p1951
I0
sS'ibase_affected_rows'
p1952
I0
sS'apache_request_internal_redirect'
p1953
I0
sS'config_get_hash'
p1954
I0
sS'enchant_broker_describe'
p1955
I0
sS'enchant_dict_is_in_session'
p1956
I0
sS'shm_remove_var'
p1957
I0
sS'parse_url+'
p1958
I1
sS'simplexml_import_dom+'
p1959
I1
sS'ibase_server_info'
p1960
I0
sS'pspell_config_data_dir'
p1961
I0
sS'sqlite_current'
p1962
I0
sS'mysqli_stmt_bind_param'
p1963
I0
sS'tidy_get_html'
p1964
I0
sS'ldap_unbind'
p1965
I0
sS'sybase_fetch_array'
p1966
I0
sS'var_dump+'
p1967
I1
sS'oci_result'
p1968
I0
sS'mb_ereg_search_regs'
p1969
I0
sS'tidy_get_status'
p1970
I0
sS'posix_geteuid'
p1971
I0
sS'oci_lob_append'
p1972
I0
sS'socket_select'
p1973
I0
sS'mb_detect_encoding+'
p1974
I1
sS'apache_request_read_body'
p1975
I0
sS'mysqli_stmt_reset'
p1976
I0
sS'variant_int'
p1977
I0
sS'sqlite_create_aggregate'
p1978
I0
sS'apache_exec_uri'
p1979
I0
sS'sqlite_popen'
p1980
I0
sS'xmlwriter_start_comment'
p1981
I1
sS'mysql_list_processes'
p1982
I0
sS'pspell_config_personal'
p1983
I0
sS'odbc_field_name'
p1984
I0
sS'pclose'
p1985
I1
sS'strtok+'
p1986
I1
sS'array_merge+'
p1987
I1
sS'snmp_get_valueretrieval'
p1988
I0
sS'xml_parser_set_option'
p1989
I3
sS'is_nan'
p1990
I1
sS'sybase_connect'
p1991
I0
sS'ctype_xdigit'
p1992
I1
sS'apache_request_remote_host'
p1993
I0
sS'get_meta_tags+'
p1994
I1
sS'phpinfo'
p1995
I0
sS'jddayofweek'
p1996
I0
sS'xmlwriter_start_document+'
p1997
I1
sS'odbc_num_rows'
p1998
I0
sS'imap_lsub_full'
p1999
I0
sS'mssql_init'
p2000
I0
sS'socket_accept'
p2001
I0
sS'symlink'
p2002
I2
sS'dom_text_is_whitespace_in_element_content'
p2003
I0
sS'xmlwriter_end_cdata'
p2004
I1
sS'resourcebundle_count '
p2005
I0
sS'dom_attr_is_id'
p2006
I0
sS'php_strip_whitespace'
p2007
I1
sS'oci_set_edition'
p2008
I0
sS'mysqli_stmt_prepare'
p2009
I0
sS'str_replace+'
p2010
I3
sS'strspn+'
p2011
I2
sS'sybase_fetch_object'
p2012
I0
sS'variant_idiv'
p2013
I0
sS'collator_get_sort_key '
p2014
I0
sS'dom_domconfiguration_get_parameter'
p2015
I0
sS'tidy_parse_file'
p2016
I0
sS'dba_delete'
p2017
I0
sS'ftp_connect'
p2018
I0
sS'long2ip'
p2019
I1
sS'collator_get_strength '
p2020
I0
sS'array_sum'
p2021
I1
sS'socket_create_pair'
p2022
I0
sS'ibase_blob_get'
p2023
I0
sS'curl_errno'
p2024
I0
sS'tidy_is_xhtml'
p2025
I0
sS'grapheme_strrpos'
p2026
I0
sS'xmlwriter_start_dtd+'
p2027
I2
sS'ldap_set_option '
p2028
I0
sS'dom_characterdata_substring_data'
p2029
I0
sS'mysql_data_seek'
p2030
I0
sS'log10'
p2031
I1
sS'ctype_punct'
p2032
I1
sS'user_sprintf'
p2033
I0
sS'imap_check'
p2034
I0
sS'odbc_columns'
p2035
I0
sS'iconv_set_encoding'
p2036
I0
sS'class_parents+'
p2037
I1
sS'natcasesort'
p2038
I1
sS'oci_lob_eof'
p2039
I0
sS'imap_utf7_decode'
p2040
I0
sS'wddx_packet_start'
p2041
I0
sS'cal_to_jd'
p2042
I0
sS'pg_fetch_object'
p2043
I0
sS'odbc_num_fields'
p2044
I0
sS'cal_days_in_month'
p2045
I0
sS'mysql_escape_string'
p2046
I0
sS'imagepsloadfont'
p2047
I0
sS'curl_multi_getcontent'
p2048
I0
sS'pg_parameter_status'
p2049
I0
sS'imap_clearflag_full'
p2050
I0
sS'log1p'
p2051
I1
sS'normalizer_normalize '
p2052
I0
sS'numfmt_create '
p2053
I0
sS'dom_element_has_attribute'
p2054
I0
sS'strstr+'
p2055
I2
sS'pg_lo_unlink'
p2056
I0
sS'mb_strpos+'
p2057
I2
sS'stream_set_timeout+'
p2058
I2
sS'xmlrpc_server_destroy'
p2059
I0
sS'pg_escape_string'
p2060
I0
sS'mysqli_fetch_fields '
p2061
I0
sS'odbc_binmode'
p2062
I0
sS'trim+'
p2063
I1
sS'fpassthru'
p2064
I1
sS'tidy_get_release'
p2065
I0
sS'numfmt_set_pattern '
p2066
I0
sS'ibase_gen_id'
p2067
I0
sS'virtual'
p2068
I0
sS'bin2hex'
p2069
I1
sS'dom_characterdata_append_data'
p2070
I0
sS'oci_define_by_name'
p2071
I0
sS'oci_fetch'
p2072
I0
sS'mysqli_character_set_name'
p2073
I0
sS'array_uintersect_uassoc+'
p2074
I4
sS'readlink'
p2075
I1
sS'date_sun_info'
p2076
I3
sS'pg_connection_reset'
p2077
I0
sS'readline'
p2078
I1
sS'odbc_tableprivileges'
p2079
I0
sS'xml_parser_get_option'
p2080
I2
sS'array_pad'
p2081
I3
sS'sqlite_num_fields'
p2082
I0
sS'xsl_xsltprocessor_transform_to_uri'
p2083
I0
sS'fseek+'
p2084
I2
sS'litespeed_response_headers'
p2085
I0
sS'preg_grep+'
p2086
I2
sS'openssl_pkcs12_export'
p2087
I0
sS'imap_fetchbody'
p2088
I0
sS'gd_info'
p2089
I0
s.