(dp0
S'dom_node_get_feature'
p1
I0
sS'sqlite_field_name'
p2
I0
sS'imagecreatefromxpm'
p3
I0
sS'pg_send_query_params'
p4
I0
sS'sleep'
p5
I1
sS'compact+'
p6
I1
sS'imap_rfc822_write_address'
p7
I0
sS'dba_fetch'
p8
I0
sS'ftp_size'
p9
I0
sS'mhash_get_block_size'
p10
I1
sS'dom_element_remove_attribute'
p11
I0
sS'eregi_replace'
p12
I3
sS'mysqli_stmt_attr_set'
p13
I0
sS'json_last_error'
p14
I0
sS'mysql_connect'
p15
I0
sS'imagefill'
p16
I0
sS'ibase_commit'
p17
I0
sS'tidy_get_root'
p18
I0
sS'localtime'
p19
I0
sS'strftime+'
p20
I1
sS'birdstep_result'
p21
I0
sS'xsl_xsltprocessor_transform_to_doc'
p22
I0
sS'mcrypt_get_key_size'
p23
I0
sS'ucwords'
p24
I1
sS'oci_lob_copy'
p25
I0
sS'imagecreatefromxbm'
p26
I0
sS'ibase_set_event_handler'
p27
I0
sS'socket_listen'
p28
I0
sS'pg_lo_create'
p29
I0
sS'mysql_error'
p30
I0
sS'date_timestamp_set'
p31
I2
sS'imagecolorresolvealpha'
p32
I0
sS'oci_collection_size'
p33
I0
sS'str_repeat'
p34
I2
sS'mysqli_field_seek'
p35
I0
sS'substr_compare+'
p36
I3
sS'stream_context_set_option'
p37
I0
sS'mysqli_thread_safe'
p38
I0
sS'asin'
p39
I1
sS'imap_alerts'
p40
I0
sS'easter_days'
p41
I0
sS'urldecode'
p42
I1
sS'ftp_nb_put'
p43
I0
sS'snmp2_walk'
p44
I0
sS'hash_hmac+'
p45
I3
sS'mysqli_stmt_close'
p46
I0
sS'imap_subscribe'
p47
I0
sS'oci_field_type_raw'
p48
I0
sS'dom_document_adopt_node'
p49
I0
sS'birdstep_autocommit'
p50
I0
sS'posix_kill'
p51
I0
sS'strtolower'
p52
I1
sS'variant_and'
p53
I0
sS'mssql_fetch_object'
p54
I0
sS'sqlite_escape_string'
p55
I0
sS'in_array+'
p56
I2
sS'sqlite_has_prev'
p57
I0
sS'iconv_mime_encode'
p58
I0
sS'exif_read_data'
p59
I0
sS'ctype_graph'
p60
I1
sS'date_diff+'
p61
I2
sS'dom_node_is_default_namespace'
p62
I0
sS'posix_access'
p63
I0
sS'stream_bucket_prepend'
p64
I2
sS'debug_zval_dump+'
p65
I1
sS'preg_match+'
p66
I2
sS'ibase_pconnect'
p67
I0
sS'ldap_set_rebind_proc'
p68
I0
sS'odbc_result'
p69
I0
sS'recode_string'
p70
I0
sS'pg_send_prepare'
p71
I0
sS'ksort+'
p72
I1
sS'ftok'
p73
I2
sS'imagesetstyle'
p74
I0
sS'mysqli_set_local_infile_handler'
p75
I0
sS'imap_getacl'
p76
I0
sS'xml_get_error_code'
p77
I1
sS'imap_listmailbox'
p78
I0
sS'mktime'
p79
I0
sS'ldap_first_attribute'
p80
I0
sS'mcrypt_module_is_block_algorithm'
p81
I0
sS'imap_lsub'
p82
I0
sS'json_decode'
p83
I0
sS'confirm_extname_compiled'
p84
I0
sS'count+'
p85
I1
sS'image_type_to_mime_type'
p86
I1
sS'sybase_set_message_handler'
p87
I0
sS'imap_fetchstructure'
p88
I0
sS'serialize'
p89
I1
sS'mcrypt_module_is_block_mode'
p90
I0
sS'ibase_timefmt'
p91
I0
sS'pg_send_query'
p92
I0
sS'odbc_error'
p93
I0
sS'str_split+'
p94
I1
sS'pg_fetch_row'
p95
I0
sS'openssl_dh_compute_key'
p96
I0
sS'mysqli_init'
p97
I0
sS'dba_popen'
p98
I0
sS'sybase_unbuffered_query'
p99
I0
sS'imagettftext'
p100
I0
sS'array_diff_assoc+'
p101
I2
sS'mysql_fetch_object'
p102
I0
sS'pg_field_prtlen'
p103
I0
sS'end'
p104
I1
sS'mysqli_warning_count'
p105
I0
sS'snmp3_set'
p106
I0
sS'rewind'
p107
I1
sS'posix_getuid'
p108
I0
sS'mysqli_get_connection_stats'
p109
I0
sS'pg_escape_bytea'
p110
I0
sS'stream_socket_get_name'
p111
I2
sS'openssl_public_decrypt'
p112
I0
sS'dom_text_split_text'
p113
I0
sS'dom_document_relaxNG_validate_file'
p114
I0
sS'array_multisort+'
p115
I1
sS'mcrypt_module_get_algo_block_size'
p116
I0
sS'sybase_get_last_message'
p117
I0
sS'oci_lob_tell'
p118
I0
sS'curl_error'
p119
I0
sS'mssql_result'
p120
I0
sS'ibase_execute'
p121
I0
sS'mssql_query'
p122
I0
sS'openssl_digest'
p123
I0
sS'snmp3_walk'
p124
I0
sS'fnmatch+'
p125
I2
sS'socket_create'
p126
I0
sS'bzerror'
p127
I0
sS'openssl_x509_check_private_key'
p128
I0
sS'xmlwriter_write_cdata'
p129
I2
sS'set_magic_quotes_runtime'
p130
I1
sS'filter_id'
p131
I1
sS'sqlite_open'
p132
I0
sS'oci_fetch_object'
p133
I0
sS'sqlite2_create_function'
p134
I0
sS'curl_close'
p135
I0
sS'ftp_nb_fget'
p136
I0
sS'sqlite_array_query'
p137
I0
sS'imap_sort'
p138
I0
sS'array_replace_recursive+'
p139
I1
sS'mysql_get_host_info'
p140
I0
sS'ctype_lower'
p141
I1
sS'nl2br+'
p142
I1
sS'imagefilledarc'
p143
I0
sS'array_rand+'
p144
I1
sS'hash+'
p145
I2
sS'user_filter_nop'
p146
I0
sS'array_diff+'
p147
I2
sS'openssl_csr_export_to_file'
p148
I0
sS'xmlwriter_write_comment'
p149
I2
sS'imagegd'
p150
I0
sS'ldap_sort'
p151
I0
sS'reset'
p152
I1
sS'imagedestroy'
p153
I0
sS'array_intersect+'
p154
I2
sS'date_interval_create_from_date_string'
p155
I1
sS'mcrypt_enc_get_algorithms_name'
p156
I0
sS'mysqli_info'
p157
I0
sS'ldap_parse_reference'
p158
I0
sS'ftp_exec'
p159
I0
sS'pspell_add_to_session'
p160
I0
sS'snmp_set_valueretrieval'
p161
I0
sS'ftp_login'
p162
I0
sS'sqlite_create_function'
p163
I0
sS'imageloadfont'
p164
I0
sS'sqlite_udf_encode_binary'
p165
I0
sS'tidy_parse_string'
p166
I0
sS'array_change_key_case+'
p167
I1
sS'curl_multi_info_read'
p168
I0
sS'pspell_suggest'
p169
I0
sS'html_entity_decode+'
p170
I1
sS'decbin'
p171
I1
sS'curl_multi_init'
p172
I0
sS'dom_element_has_attribute_ns'
p173
I0
sS'mb_strrpos+'
p174
I2
sS'log+'
p175
I1
sS'openssl_sign'
p176
I0
sS'chunk_split+'
p177
I1
sS'ldap_compare'
p178
I0
sS'pg_connection_status'
p179
I0
sS'oci_lob_save'
p180
I0
sS'htmlentities+'
p181
I1
sS'openssl_pkcs7_verify'
p182
I0
sS'shmop_size'
p183
I0
sS'ldap_count_entries'
p184
I0
sS'preg_filter+'
p185
I3
sS'posix_seteuid'
p186
I0
sS'openssl_pkey_new'
p187
I0
sS'oci_error'
p188
I0
sS'call_user_func+'
p189
I1
sS'proc_nice'
p190
I1
sS'sscanf+'
p191
I2
sS'dom_namednodemap_get_named_item'
p192
I0
sS'pg_lo_read_all'
p193
I0
sS'imageconvolution'
p194
I0
sS'imagelayereffect'
p195
I0
sS'sem_acquire'
p196
I0
sS'dom_element_set_id_attribute_node'
p197
I0
sS'odbc_fetch_row'
p198
I0
sS'mysql_stat'
p199
I0
sS'array_slice+'
p200
I2
sS'mcrypt_ecb'
p201
I0
sS'xmlrpc_encode_request'
p202
I0
sS'date_format'
p203
I2
sS'mysqli_driver_construct'
p204
I0
sS'file_exists'
p205
I1
sS'mysqli_field_tell'
p206
I0
sS'xmlwriter_start_dtd_element'
p207
I2
sS'pg_lo_read'
p208
I0
sS'ldap_get_entries'
p209
I0
sS'ibase_errcode'
p210
I0
sS'imap_unsubscribe'
p211
I0
sS'dom_node_is_equal_node'
p212
I0
sS'birdstep_off_autocommit'
p213
I0
sS'forward_static_call_array'
p214
I2
sS'date_date_set'
p215
I4
sS'ereg_replace'
p216
I3
sS'mssql_select_db'
p217
I0
sS'session_set_save_handler'
p218
I0
sS'imagepscopyfont'
p219
I0
sS'snmp2_getnext'
p220
I0
sS'dom_xpath_register_php_functions'
p221
I0
sS'mssql_fetch_assoc'
p222
I0
sS'settype'
p223
I2
sS'mysqli_use_result'
p224
I0
sS'min+'
p225
I1
sS'iptcembed+'
p226
I2
sS'sqlite_query'
p227
I0
sS'xmlwriter_full_end_element'
p228
I1
sS'mysqli_stmt_sqlstate'
p229
I0
sS'xmlwriter_end_dtd_entity'
p230
I1
sS'preg_replace+'
p231
I3
sS'snmp3_getnext'
p232
I0
sS'strip_tags+'
p233
I1
sS'dom_element_set_attribute_node'
p234
I0
sS'ctype_alpha'
p235
I1
sS'readgzfile+'
p236
I1
sS'xml_error_string'
p237
I1
sS'fileatime'
p238
I1
sS'ibase_prepare'
p239
I0
sS'natsort'
p240
I1
sS'max+'
p241
I1
sS'openssl_cipher_iv_length'
p242
I0
sS'base64_decode+'
p243
I1
sS'pg_convert'
p244
I0
sS'wddx_serialize_vars'
p245
I0
sS'call_user_method_array'
p246
I3
sS'tidy_get_config'
p247
I0
sS'imagecreatefromwbmp'
p248
I0
sS'ldap_next_entry'
p249
I0
sS'stream_set_read_buffer'
p250
I2
sS'hash_final+'
p251
I1
sS'imagecopyresized'
p252
I0
sS'posix_isatty'
p253
I0
sS'exif_imagetype'
p254
I0
sS'mysqli_select_db'
p255
I0
sS'mysql_list_tables'
p256
I0
sS'sqlite_unbuffered_query'
p257
I0
sS'msg_receive'
p258
I0
sS'dba_sync'
p259
I0
sS'ibase_param_info'
p260
I0
sS'oci_lob_is_equal'
p261
I0
sS'shm_detach'
p262
I0
sS'dl'
p263
I1
sS'posix_getgrgid'
p264
I0
sS'birdstep_fieldnum'
p265
I0
sS'ceil'
p266
I1
sS'mcrypt_list_algorithms'
p267
I0
sS'implode+'
p268
I1
sS'variant_eqv'
p269
I0
sS'pcntl_setpriority+'
p270
I1
sS'ip2long'
p271
I1
sS'snmp2_set'
p272
I0
sS'libxml_set_streams_context'
p273
I1
sS'tidy_clean_repair'
p274
I0
sS'openssl_open'
p275
I0
sS'imap_createmailbox'
p276
I0
sS'ldap_delete'
p277
I0
sS'pspell_store_replacement'
p278
I0
sS'odbc_connect'
p279
I0
sS'imagefilledrectangle'
p280
I0
sS'xml_get_current_line_number'
p281
I1
sS'dom_domconfiguration_set_parameter'
p282
I0
sS'proc_close'
p283
I1
sS'mb_stripos+'
p284
I2
sS'birdstep_commit'
p285
I0
sS'mcrypt_encrypt'
p286
I0
sS'number_format+'
p287
I1
sS'rad2deg'
p288
I1
sS'iconv_get_encoding'
p289
I0
sS'posix_setegid'
p290
I0
sS'mysqli_fetch_row'
p291
I0
sS'extract+'
p292
I1
sS'date_default_timezone_get'
p293
I0
sS'imagecopymerge'
p294
I0
sS'session_unregister'
p295
I1
sS'dom_element_set_id_attribute'
p296
I0
sS'snmp_set_enum_print'
p297
I0
sS'dom_element_get_elements_by_tag_name_ns'
p298
I0
sS'class_implements+'
p299
I1
sS'wordwrap+'
p300
I1
sS'xmlrpc_get_type'
p301
I0
sS'ibase_blob_import'
p302
I0
sS'imagecharup'
p303
I0
sS'openssl_pkcs7_encrypt'
p304
I0
sS'strnatcasecmp'
p305
I2
sS'cos'
p306
I1
sS'imap_delete'
p307
I0
sS'pg_lo_import'
p308
I0
sS'dom_document_savexml'
p309
I0
sS'stream_context_set_params'
p310
I2
sS'dom_namednodemap_set_named_item'
p311
I0
sS'gethostbynamel'
p312
I1
sS'stream_wrapper_register+'
p313
I2
sS'imap_8bit'
p314
I0
sS'file_get_contents+'
p315
I1
sS'posix_setuid'
p316
I0
sS'bzerrno'
p317
I0
sS'ibase_num_params'
p318
I0
sS'variant_xor'
p319
I0
sS'oci_lob_export'
p320
I0
sS'variant_fix'
p321
I0
sS'dom_document_xinclude'
p322
I0
sS'snmp_set_oid_output_format'
p323
I0
sS'stream_context_get_params'
p324
I1
sS'xml_parse+'
p325
I2
sS'ldap_mod_add'
p326
I0
sS'ldap_first_reference'
p327
I0
sS'json_encode'
p328
I0
sS'mb_preferred_mime_name'
p329
I1
sS'mysqli_store_result'
p330
I0
sS'array_diff_uassoc+'
p331
I3
sS'get_headers+'
p332
I1
sS'imagettfbbox'
p333
I0
sS'iconv_substr'
p334
I0
sS'iptcparse'
p335
I1
sS'mdecrypt_generic'
p336
I0
sS'ldap_add'
p337
I0
sS'mssql_fetch_row'
p338
I0
sS'posix_setsid'
p339
I0
sS'tanh'
p340
I1
sS'xmlrpc_server_register_method'
p341
I0
sS'sqlite_error_string'
p342
I0
sS'mssql_field_type'
p343
I0
sS'rename+'
p344
I2
sS'array_replace+'
p345
I1
sS'solid_fetch_prev'
p346
I0
sS'str_rot13'
p347
I1
sS'xmlrpc_is_fault'
p348
I0
sS'dom_element_remove_attribute_ns'
p349
I0
sS'ibase_free_event_handler'
p350
I0
sS'mysql_client_encoding'
p351
I0
sS'pg_get_result'
p352
I0
sS'pcntl_sigwaitinfo+'
p353
I1
sS'bcsub'
p354
I0
sS'tidy_get_body'
p355
I0
sS'get_browser'
p356
I0
sS'register_tick_function'
p357
I0
sS'pg_last_notice'
p358
I0
sS'oci_commit'
p359
I0
sS'ibase_delete_user'
p360
I0
sS'imap_undelete'
p361
I0
sS'date_timezone_set'
p362
I2
sS'ob_flush'
p363
I0
sS'openssl_x509_export'
p364
I0
sS'nl_langinfo'
p365
I1
sS'xmlwriter_end_dtd'
p366
I1
sS'variant_abs'
p367
I0
sS'odbc_execute'
p368
I0
sS'mysqli_next_result'
p369
I0
sS'ibase_trans'
p370
I0
sS'variant_mod'
p371
I0
sS'sqlite_prev'
p372
I0
sS'pspell_new'
p373
I0
sS'posix_setgid'
p374
I0
sS'dom_document_import_node'
p375
I0
sS'tidy_repair_string'
p376
I0
sS'posix_strerror'
p377
I0
sS'dom_document_create_element_ns'
p378
I0
sS'variant_set_type'
p379
I0
sS'array_push+'
p380
I2
sS'imagecreatefrompng'
p381
I0
sS'mhash'
p382
I0
sS'date_parse_from_format'
p383
I2
sS'stream_socket_recvfrom+'
p384
I2
sS'imap_mutf7_to_utf8'
p385
I0
sS'image2wbmp'
p386
I0
sS'shuffle'
p387
I1
sS'pg_query'
p388
I0
sS'mb_strlen+'
p389
I1
sS'iconv_strrpos'
p390
I0
sS'mysql_get_proto_info'
p391
I0
sS'xsl_xsltprocessor_import_stylesheet'
p392
I0
sS'is_float'
p393
I1
sS'xmlwriter_write_raw'
p394
I2
sS'ldap_next_attribute'
p395
I0
sS'iconv_mime_decode'
p396
I0
sS'odbc_field_len'
p397
I0
sS'str_shuffle'
p398
I1
sS'com_variant_create_instance'
p399
I0
sS'xmlwriter_end_document'
p400
I1
sS'ldap_free_result'
p401
I0
sS'xmlwriter_write_pi'
p402
I3
sS'shm_get_var'
p403
I0
sS'pcntl_sigprocmask+'
p404
I2
sS'imagepsbbox'
p405
I0
sS'mysql_insert_id'
p406
I0
sS'enchant_dict_describe'
p407
I0
sS'pg_cancel_query'
p408
I0
sS'com_create_instance'
p409
I0
sS'mb_ereg_replace+'
p410
I3
sS'bcpowmod'
p411
I0
sS'ldap_errno'
p412
I0
sS'mysqli_stmt_init'
p413
I0
sS'hypot'
p414
I2
sS'oci_fetch_assoc'
p415
I0
sS'date_time_set+'
p416
I3
sS'pspell_config_dict_dir'
p417
I0
sS'posix_getsid'
p418
I0
sS'ldap_parse_result'
p419
I0
sS'dba_list'
p420
I0
sS'imagefilledpolygon'
p421
I0
sS'dom_element_get_attribute_node_ns'
p422
I0
sS'array_shift'
p423
I1
sS'sybase_result'
p424
I0
sS'bindec'
p425
I1
sS'ldap_search'
p426
I0
sS'mcrypt_module_get_supported_key_sizes'
p427
I0
sS'odbc_tables'
p428
I0
sS'date_modify'
p429
I2
sS'xml_set_default_handler'
p430
I2
sS'mysqli_stmt_bind_result'
p431
I0
sS'ibase_connect'
p432
I0
sS'pcntl_sigtimedwait+'
p433
I1
sS'acos'
p434
I1
sS'unlink+'
p435
I1
sS'mysqli_thread_id'
p436
I0
sS'stream_get_line+'
p437
I2
sS'mysqli_sqlstate'
p438
I0
sS'ibase_num_rows'
p439
I0
sS'tempnam'
p440
I2
sS'array_merge_recursive+'
p441
I1
sS'convert_cyr_string'
p442
I3
sS'imagepsfreefont'
p443
I0
sS'fsockopen+'
p444
I1
sS'ibase_wait_event'
p445
I0
sS'xmlwriter_start_attribute_ns'
p446
I4
sS'is_resource'
p447
I1
sS'enchant_broker_dict_exists'
p448
I0
sS'oci_parse'
p449
I0
sS'iterator_count'
p450
I1
sS'imap_deletemailbox'
p451
I0
sS'ldap_rename'
p452
I0
sS'round+'
p453
I1
sS'ucfirst'
p454
I1
sS'lchgrp'
p455
I2
sS'date_parse'
p456
I1
sS'socket_getsockname'
p457
I0
sS'ini_restore'
p458
I1
sS'array_intersect_key+'
p459
I2
sS'dom_node_lookup_namespace_uri'
p460
I0
sS'exif_tagname'
p461
I0
sS'oci_field_type'
p462
I0
sS'imagecolorstotal'
p463
I0
sS'imap_mail'
p464
I0
sS'enchant_broker_free'
p465
I0
sS'mysqli_stmt_store_result'
p466
I0
sS'mssql_bind'
p467
I0
sS'xml_parser_free'
p468
I1
sS'disk_free_space'
p469
I1
sS'bzread'
p470
I0
sS'mysql_fetch_field'
p471
I0
sS'ob_gzhandler'
p472
I2
sS'mysqli_get_client_version'
p473
I0
sS'sqlite_fetch_column_types'
p474
I0
sS'sybase_min_server_severity'
p475
I0
sS'iconv_strlen'
p476
I0
sS'dom_userdatahandler_handle'
p477
I0
sS'floor'
p478
I1
sS'cal_from_jd'
p479
I0
sS'imageistruecolor'
p480
I0
sS'imagefontwidth'
p481
I0
sS'strtr+'
p482
I2
sS'stream_set_blocking'
p483
I2
sS'addcslashes'
p484
I2
sS'mysql_num_fields'
p485
I0
sS'easter_date'
p486
I0
sS'ldap_get_values_len'
p487
I0
sS'socket_close'
p488
I0
sS'mysql_field_table'
p489
I0
sS'mail+'
p490
I3
sS'pg_get_notify'
p491
I0
sS'birdstep_exec'
p492
I0
sS'stream_bucket_new'
p493
I2
sS'oci_internal_debug'
p494
I0
sS'stripcslashes'
p495
I1
sS'xmlwriter_set_indent_string'
p496
I2
sS'mcrypt_generic'
p497
I0
sS'dom_document_create_entity_reference'
p498
I0
sS'openssl_private_decrypt'
p499
I0
sS'finfo_set_flags'
p500
I2
sS'socket_last_error'
p501
I0
sS'str_getcsv+'
p502
I1
sS'sqlite_libversion'
p503
I0
sS'pg_result_error_field'
p504
I0
sS'dom_namelist_get_name'
p505
I0
sS'session_destroy'
p506
I0
sS'mb_eregi_replace+'
p507
I3
sS'imagepsextendfont'
p508
I0
sS'variant_div'
p509
I0
sS'odbc_columnprivileges'
p510
I0
sS'unpack'
p511
I2
sS'mssql_free_statement'
p512
I0
sS'hash_file+'
p513
I2
sS'mysql_list_fields'
p514
I0
sS'mysql_fetch_assoc'
p515
I0
sS'com_method_handler'
p516
I0
sS'posix_getgrnam'
p517
I0
sS'openssl_csr_get_subject'
p518
I0
sS'putenv'
p519
I1
sS'dom_domerrorhandler_handle_error'
p520
I0
sS'mssql_execute'
p521
I0
sS'pg_query_params'
p522
I0
sS'hash_update_stream+'
p523
I2
sS'array_uintersect_assoc+'
p524
I3
sS'dom_element_set_attribute'
p525
I0
sS'pg_lo_export'
p526
I0
sS'dom_document_create_text_node'
p527
I0
sS'pspell_config_save_repl'
p528
I0
sS'timezone_name_from_abbr+'
p529
I1
sS'curl_getinfo'
p530
I0
sS'pg_untrace'
p531
I0
sS'snmp_set_quick_print'
p532
I0
sS'stream_filter_append+'
p533
I2
sS'xsl_xsltprocessor_get_parameter'
p534
I0
sS'openssl_public_encrypt'
p535
I0
sS'preg_match_all+'
p536
I3
sS'imap_mime_header_decode'
p537
I0
sS'spliti+'
p538
I2
sS'pcntl_wifstopped'
p539
I1
sS'cosh'
p540
I1
sS'pg_fetch_all_columns'
p541
I0
sS'mcrypt_module_open'
p542
I0
sS'simplexml_load_string+'
p543
I1
sS'odbc_cursor'
p544
I0
sS'imagefilltoborder'
p545
I0
sS'odbc_procedurecolumns'
p546
I0
sS'dom_element_set_attribute_node_ns'
p547
I0
sS'imap_rfc822_parse_headers'
p548
I0
sS'openlog'
p549
I3
sS'strtotime+'
p550
I1
sS'imagexbm'
p551
I0
sS'current'
p552
I1
sS'imagesetbrush'
p553
I0
sS'dom_xpath_register_ns'
p554
I0
sS'stream_select+'
p555
I4
sS'posix_ttyname'
p556
I0
sS'ftp_chdir'
p557
I0
sS'ini_set'
p558
I2
sS'xmlwriter_start_element'
p559
I2
sS'dns_get_mx+'
p560
I2
sS'enchant_broker_free_dict'
p561
I0
sS'pg_client_encoding'
p562
I0
sS'fgetss+'
p563
I1
sS'variant_date_from_timestamp'
p564
I0
sS'mysqli_stmt_num_rows'
p565
I0
sS'sqlite_num_rows'
p566
I0
sS'mb_strstr+'
p567
I2
sS'stream_copy_to_stream+'
p568
I2
sS'shmop_close'
p569
I0
sS'sem_remove'
p570
I0
sS'ftp_nlist'
p571
I0
sS'ldap_read'
p572
I0
sS'mb_send_mail+'
p573
I3
sS'hash_init+'
p574
I1
sS'prev'
p575
I1
sS'mysql_result'
p576
I0
sS'mhash_keygen_s2k'
p577
I4
sS'ibase_service_detach'
p578
I0
sS'oci_free_descriptor'
p579
I0
sS'shm_attach'
p580
I0
sS'dns_check_record+'
p581
I1
sS'oci_password_change'
p582
I0
sS'gettimeofday'
p583
I0
sS'sqlite_fetch_object'
p584
I0
sS'sha1+'
p585
I1
sS'tidy_get_head'
p586
I0
sS'dom_node_set_user_data'
p587
I0
sS'openssl_csr_get_public_key'
p588
I0
sS'getprotobynumber'
p589
I1
sS'date_add'
p590
I2
sS'gzuncompress+'
p591
I1
sS'stristr+'
p592
I2
sS'pg_result_seek'
p593
I0
sS'ibase_rollback_ret'
p594
I0
sS'feof'
p595
I1
sS'quoted_printable_decode'
p596
I1
sS'chroot'
p597
I1
sS'filegroup'
p598
I1
sS'imagestring'
p599
I0
sS'sem_release'
p600
I0
sS'pg_get_pid'
p601
I0
sS'atan'
p602
I1
sS'disk_total_space'
p603
I1
sS'posix_getpgrp'
p604
I0
sS'sqlite_single_query'
p605
I0
sS'ftp_raw'
p606
I0
sS'highlight_file+'
p607
I1
sS'ldap_set_option'
p608
I0
sS'hash_hmac_file+'
p609
I3
sS'ftp_put'
p610
I0
sS'pg_fetch_assoc'
p611
I0
sS'ob_end_flush'
p612
I0
sS'imap_expunge'
p613
I0
sS'ibase_close'
p614
I0
sS'imageantialias'
p615
I0
sS'mb_ereg_search_setpos'
p616
I1
sS'quotemeta'
p617
I1
sS'openssl_error_string'
p618
I0
sS'imagepalettecopy'
p619
I0
sS'xsl_xsltprocessor_set_profiling'
p620
I0
sS'pg_tty'
p621
I0
sS'exif_thumbnail'
p622
I0
sS'mysql_affected_rows'
p623
I0
sS'pg_field_name'
p624
I0
sS'imap_open'
p625
I0
sS'pg_field_type'
p626
I0
sS'bcscale'
p627
I0
sS'ldap_mod_replace'
p628
I0
sS'crypt+'
p629
I1
sS'sybase_num_rows'
p630
I0
sS'oci_lob_erase'
p631
I0
sS'mb_strcut+'
p632
I2
sS'xml_set_object'
p633
I2
sS'dbstmt_constructor'
p634
I0
sS'posix_getgroups'
p635
I0
sS'mysql_unbuffered_query'
p636
I0
sS'parse_ini_string+'
p637
I1
sS'rtrim+'
p638
I1
sS'sqlite_busy_timeout'
p639
I0
sS'pg_put_line'
p640
I0
sS'posix_getcwd'
p641
I0
sS'array_chunk+'
p642
I2
sS'mysql_get_client_info'
p643
I0
sS'variant_add'
p644
I0
sS'wddx_add_vars'
p645
I0
sS'soap_encode_to_xml'
p646
I0
sS'mysqli_set_local_infile_default'
p647
I0
sS'odbc_pconnect'
p648
I0
sS'iconv_set_encoding'
p649
I0
sS'imageellipse'
p650
I0
sS'mcrypt_enc_get_modes_name'
p651
I0
sS'dom_element_set_id_attribute_ns'
p652
I0
sS'dirname'
p653
I1
sS'strnatcmp'
p654
I2
sS'mb_strtolower+'
p655
I1
sS'mssql_free_result'
p656
I0
sS'odbc_fetch_array'
p657
I0
sS'imagefontheight'
p658
I0
sS'sqlite_next'
p659
I0
sS'mysqli_fetch_lengths'
p660
I0
sS'ctype_print'
p661
I1
sS'stream_filter_prepend+'
p662
I2
sS'array_walk_recursive+'
p663
I2
sS'sqlite_exec'
p664
I0
sS'stream_context_set_default'
p665
I1
sS'dba_optimize'
p666
I0
sS'mysqli_insert_id'
p667
I0
sS'mysqli'
p668
I0
sS'ord'
p669
I1
sS'expm1'
p670
I1
sS'xml_set_external_entity_ref_handler'
p671
I2
sS'oci_lob_read'
p672
I0
sS'session_encode'
p673
I0
sS'oci_set_client_info'
p674
I0
sS'pg_options'
p675
I0
sS'posix_mkfifo'
p676
I0
sS'mcrypt_module_close'
p677
I0
sS'array_uintersect+'
p678
I3
sS'pspell_clear_session'
p679
I0
sS'pg_pconnect'
p680
I0
sS'ftp_nb_get'
p681
I0
sS'jdtojewish'
p682
I0
sS'dom_document_save_html'
p683
I0
sS'filemtime'
p684
I1
sS'oci_collection_max'
p685
I0
sS'fd_isset'
p686
I0
sS'birdstep_fetch'
p687
I0
sS'array_count_values'
p688
I1
sS'mcrypt_module_self_test'
p689
I0
sS'dom_characterdata_replace_data'
p690
I0
sS'imagedashedline'
p691
I0
sS'oci_lob_write'
p692
I0
sS'mb_split+'
p693
I2
sS'odbc_setoption'
p694
I0
sS'imagefilledellipse'
p695
I0
sS'imap_list_full'
p696
I0
sS'dom_node_clone_node'
p697
I0
sS'sqlite_udf_decode_binary'
p698
I0
sS'enchant_dict_add_to_personal'
p699
I0
sS'stream_socket_sendto+'
p700
I2
sS'mysqli_stat'
p701
I0
sS'ldap_get_dn'
p702
I0
sS'pg_result_error'
p703
I0
sS'xmlwriter_write_element+'
p704
I2
sS'stream_socket_accept+'
p705
I1
sS'date_offset_get'
p706
I1
sS'imap_utf8_to_mutf7'
p707
I0
sS'mb_convert_kana+'
p708
I1
sS'mb_ereg_search_init+'
p709
I1
sS'ibase_blob_add'
p710
I0
sS'filter_var_array+'
p711
I1
sS'ob_iconv_handler'
p712
I0
sS'imap_num_recent'
p713
I0
sS'dom_node_remove_child'
p714
I0
sS'imap_set_quota'
p715
I0
sS'wddx_deserialize'
p716
I0
sS'imap_popen'
p717
I0
sS'mysqli_fetch_object'
p718
I0
sS'xmlrpc_server_call_method'
p719
I0
sS'mysql_info'
p720
I0
sS'dom_document_get_element_by_id'
p721
I0
sS'imagecolorexact'
p722
I0
sS'touch+'
p723
I1
sS'dom_document_get_elements_by_tag_name_ns'
p724
I0
sS'realpath'
p725
I1
sS'gzfile+'
p726
I1
sS'unixtojd'
p727
I0
sS'openssl_get_cipher_methods'
p728
I0
sS'strpbrk'
p729
I2
sS'pfsockopen+'
p730
I1
sS'openssl_encrypt'
p731
I0
sS'xmlrpc_encode'
p732
I0
sS'ftp_nb_continue'
p733
I0
sS'mysqli_rollback'
p734
I0
sS'mysqli_report'
p735
I0
sS'pspell_check'
p736
I0
sS'gettype'
p737
I1
sS'oci_field_size'
p738
I0
sS'snmpset'
p739
I0
sS'version_compare+'
p740
I2
sS'vfprintf'
p741
I0
sS'curl_multi_close'
p742
I0
sS'mssql_fetch_array'
p743
I0
sS'date_isodate_set+'
p744
I3
sS'mysqli_refresh'
p745
I0
sS'dom_namednodemap_get_named_item_ns'
p746
I0
sS'xmlwriter_open_uri'
p747
I1
sS'mssql_fetch_field'
p748
I0
sS'ini_get'
p749
I1
sS'stream_get_contents+'
p750
I1
sS'is_string'
p751
I1
sS'imap_msgno'
p752
I0
sS'imagerectangle'
p753
I0
sS'imap_gc'
p754
I0
sS'ldap_first_entry'
p755
I0
sS'posix_getpwnam'
p756
I0
sS'imagecreatetruecolor'
p757
I0
sS'fscanf+'
p758
I2
sS'pg_free_result'
p759
I0
sS'pcntl_wstopsig'
p760
I1
sS'oci_field_precision'
p761
I0
sS'parse_str+'
p762
I1
sS'jdmonthname'
p763
I0
sS'ocifetchstatement'
p764
I0
sS'pg_close'
p765
I0
sS'xmlrpc_server_create'
p766
I0
sS'mb_strrchr+'
p767
I2
sS'finfo_close'
p768
I1
sS'xmlrpc_set_type'
p769
I0
sS'ldap_explode_dn'
p770
I0
sS'utf8_encode'
p771
I1
sS'ocisetbufferinglob'
p772
I0
sS'sqlite_last_error'
p773
I0
sS'mssql_field_name'
p774
I0
sS'setlocale+'
p775
I2
sS'ibase_backup'
p776
I0
sS'imagecreatefromjpeg'
p777
I0
sS'tidy_config_count'
p778
I0
sS'socket_write'
p779
I0
sS'date+'
p780
I1
sS'posix_getlogin'
p781
I0
sS'variant_cat'
p782
I0
sS'dom_document_create_attribute'
p783
I0
sS'mysql_real_escape_string'
p784
I0
sS'mb_ereg_search_pos'
p785
I0
sS'getopt+'
p786
I1
sS'odbc_rollback'
p787
I0
sS'pg_fetch_result'
p788
I0
sS'xmlwriter_start_dtd_entity'
p789
I3
sS'ibase_add_user'
p790
I0
sS'ibase_name_result'
p791
I0
sS'oci_execute'
p792
I0
sS'snmprealwalk'
p793
I0
sS'enchant_dict_store_replacement'
p794
I0
sS'ibase_fetch_row'
p795
I0
sS'jdtogregorian'
p796
I0
sS'mysqli_fetch_field_direct'
p797
I0
sS'ibase_blob_close'
p798
I0
sS'sqlite_valid'
p799
I0
sS'openssl_pkcs7_decrypt'
p800
I0
sS'array_values'
p801
I1
sS'pow'
p802
I2
sS'mysqli_stmt_more_results'
p803
I0
sS'jdtojulian'
p804
I0
sS'mssql_pconnect'
p805
I0
sS'ldap_bind'
p806
I0
sS'msg_stat_queue'
p807
I0
sS'imagegrabscreen'
p808
I0
sS'fgets+'
p809
I1
sS'mysqli_commit'
p810
I0
sS'intval'
p811
I0
sS'openssl_csr_sign'
p812
I0
sS'date_interval_format'
p813
I2
sS'gzopen+'
p814
I2
sS'odbc_result_all'
p815
I0
sS'bcadd'
p816
I0
sS'sqlite_fetch_single'
p817
I0
sS'bccomp'
p818
I0
sS'dom_namednodemap_remove_named_item'
p819
I0
sS'stream_filter_remove'
p820
I1
sS'sqlite_libencoding'
p821
I0
sS'imagewbmp'
p822
I0
sS'posix_uname'
p823
I0
sS'pg_connection_busy'
p824
I0
sS'ibase_blob_create'
p825
I0
sS'sybase_select_db'
p826
I0
sS'odbc_procedures'
p827
I0
sS'pg_update'
p828
I0
sS'mkdir+'
p829
I1
sS'mysql_field_seek'
p830
I0
sS'ctype_space'
p831
I1
sS'socket_recv'
p832
I0
sS'mcrypt_enc_get_iv_size'
p833
I0
sS'flock+'
p834
I2
sS'zip_entry_filesize'
p835
I0
sS'mysqli_stmt_construct'
p836
I0
sS'odbc_free_result'
p837
I0
sS'print_r+'
p838
I1
sS'stream_is_local'
p839
I1
sS'stream_context_get_options'
p840
I1
sS'pg_ping'
p841
I0
sS'dom_node_normalize'
p842
I0
sS'sqlite_factory'
p843
I0
sS'oci_new_cursor'
p844
I0
sS'sqlite_last_insert_rowid'
p845
I0
sS'oci_collection_element_assign'
p846
I0
sS'timezone_open'
p847
I1
sS'mcrypt_get_iv_size'
p848
I0
sS'array_fill'
p849
I3
sS'dom_document_create_document_fragment'
p850
I0
sS'enchant_dict_add_to_session'
p851
I0
sS'mysqli_get_proto_info'
p852
I0
sS'user_printf'
p853
I0
sS'posix_mknod'
p854
I0
sS'mcrypt_cfb'
p855
I0
sS'jdtounix'
p856
I0
sS'mb_decode_numericentity'
p857
I3
sS'snmp3_get'
p858
I0
sS'pg_insert'
p859
I0
sS'iconv_mime_decode_headers'
p860
I0
sS'is_writable'
p861
I1
sS'oci_bind_array_by_name'
p862
I0
sS'is_scalar'
p863
I1
sS'odbc_gettypeinfo'
p864
I0
sS'snmpwalk'
p865
I0
sS'oci_lob_size'
p866
I0
sS'imagepsencodefont'
p867
I0
sS'ftp_pwd'
p868
I0
sS'msg_get_queue'
p869
I0
sS'chmod'
p870
I2
sS'oci_new_descriptor'
p871
I0
sS'proc_terminate+'
p872
I1
sS'imap_headers'
p873
I0
sS'ibase_num_fields'
p874
I0
sS'imap_close'
p875
I0
sS'imagetypes'
p876
I0
sS'mysqli_get_client_stats'
p877
I0
sS'is_long'
p878
I1
sS'fgetc'
p879
I1
sS'mysql_ping'
p880
I0
sS'is_link'
p881
I1
sS'oci_set_prefetch'
p882
I0
sS'stream_socket_shutdown'
p883
I2
sS'mb_eregi+'
p884
I2
sS'imagecreatefromstring'
p885
I0
sS'pg_set_client_encoding'
p886
I0
sS'mssql_num_fields'
p887
I0
sS'stream_socket_pair'
p888
I3
sS'pg_last_error'
p889
I0
sS'ftell'
p890
I1
sS'openssl_random_pseudo_bytes'
p891
I0
sS'tidy_warning_count'
p892
I0
sS'xmlwriter_end_element'
p893
I1
sS'pg_trace'
p894
I0
sS'is_readable'
p895
I1
sS'mysqli_num_rows'
p896
I0
sS'pspell_config_create'
p897
I0
sS'file_put_contents+'
p898
I2
sS'mysqli_get_server_info'
p899
I0
sS'ibase_service_attach'
p900
I0
sS'odbc_commit'
p901
I0
sS'imagegrabwindow'
p902
I0
sS'variant_round'
p903
I0
sS'strrev'
p904
I1
sS'stream_socket_enable_crypto+'
p905
I2
sS'ctype_alnum'
p906
I1
sS'xsl_xsltprocessor_remove_parameter'
p907
I0
sS'imap_get_quotaroot'
p908
I0
sS'msg_send'
p909
I0
sS'variant_sub'
p910
I0
sS'array_fill_keys'
p911
I2
sS'dom_import_simplexml'
p912
I1
sS'imagecolorset'
p913
I0
sS'ibase_fetch_assoc'
p914
I0
sS'gzinflate+'
p915
I1
sS'session_set_cookie_params+'
p916
I1
sS'ibase_query'
p917
I0
sS'msg_queue_exists'
p918
I0
sS'posix_times'
p919
I0
sS'pg_lo_close'
p920
I0
sS'getimagesize+'
p921
I1
sS'imap_rename'
p922
I0
sS'is_executable'
p923
I1
sS'rawurlencode'
p924
I1
sS'dom_document_create_cdatasection'
p925
I0
sS'ob_tidyhandler'
p926
I0
sS'oci_set_action'
p927
I0
sS'imagesy'
p928
I0
sS'imagesx'
p929
I0
sS'mcrypt_enc_get_key_size'
p930
I0
sS'addslashes'
p931
I1
sS'variant_or'
p932
I0
sS'imap_reopen'
p933
I0
sS'call_user_func_array'
p934
I2
sS'com_get_active_object'
p935
I0
sS'dom_text_replace_whole_text'
p936
I0
sS'mb_encode_numericentity'
p937
I3
sS'metaphone+'
p938
I1
sS'imap_body'
p939
I0
sS'imagecolorallocatealpha'
p940
I0
sS'variant_get_type'
p941
I0
sS'imagetruecolortopalette'
p942
I0
sS'pg_dbname'
p943
I0
sS'oci_statement_type'
p944
I0
sS'zip_entry_open'
p945
I0
sS'sqlite_seek'
p946
I0
sS'getdate'
p947
I0
sS'zip_open'
p948
I0
sS'mysqli_free_result'
p949
I0
sS'imap_bodystruct'
p950
I0
sS'linkinfo'
p951
I1
sS'array_intersect_uassoc+'
p952
I3
sS'imap_headerinfo'
p953
I0
sS'oci_fetch_all'
p954
I0
sS'mysql_select_db'
p955
I0
sS'oci_lob_flush'
p956
I0
sS'dom_document_schema_validate_xml'
p957
I0
sS'oci_cancel'
p958
I0
sS'variant_not'
p959
I0
sS'odbc_prepare'
p960
I0
sS'ftp_fput'
p961
I0
sS'pg_end_copy'
p962
I0
sS'mcrypt_module_get_algo_key_size'
p963
I0
sS'openssl_x509_read'
p964
I0
sS'ftp_mkdir'
p965
I0
sS'mcrypt_create_iv'
p966
I0
sS'pspell_config_mode'
p967
I0
sS'mysqli_real_connect'
p968
I0
sS'oci_lob_close'
p969
I0
sS'hash_update'
p970
I2
sS'mcrypt_module_is_block_algorithm_mode'
p971
I0
sS'mysqli_stmt_next_result'
p972
I0
sS'mysqli_stmt_attr_get'
p973
I0
sS'sybase_deadlock_retry_count'
p974
I0
sS'preg_split+'
p975
I2
sS'socket_strerror'
p976
I0
sS'imagefilter'
p977
I0
sS'dom_element_remove_attribute_node'
p978
I0
sS'chown'
p979
I2
sS'oci_set_module_name'
p980
I0
sS'sin'
p981
I1
sS'pg_host'
p982
I0
sS'pcntl_wexitstatus'
p983
I1
sS'xmlrpc_parse_method_descriptions'
p984
I0
sS'socket_getpeername'
p985
I0
sS'mysqli_affected_rows'
p986
I0
sS'strtotime'
p987
I0
sS'sybase_fetch_field'
p988
I0
sS'mysqli_query'
p989
I0
sS'acosh'
p990
I1
sS'snmpget'
p991
I0
sS'dom_document_relaxNG_validate_xml'
p992
I0
sS'dom_namednodemap_remove_named_item_ns'
p993
I0
sS'strptime'
p994
I2
sS'unserialize'
p995
I1
sS'dom_node_get_user_data'
p996
I0
sS'sqlite_changes'
p997
I0
sS'xmlwriter_write_dtd_element'
p998
I3
sS'posix_initgroups'
p999
I0
sS'mcrypt_get_block_size'
p1000
I0
sS'imap_get_quota'
p1001
I0
sS'ibase_rollback'
p1002
I0
sS'time_nanosleep'
p1003
I2
sS'strtoupper'
p1004
I1
sS'enchant_broker_request_pwl_dict'
p1005
I0
sS'ibase_commit_ret'
p1006
I0
sS'fwrite+'
p1007
I2
sS'ftp_close'
p1008
I0
sS'array_walk+'
p1009
I2
sS'preg_replace_callback+'
p1010
I3
sS'posix_getegid'
p1011
I0
sS'urlencode'
p1012
I1
sS'range+'
p1013
I2
sS'pcntl_alarm'
p1014
I1
sS'syslog'
p1015
I2
sS'openssl_pkey_export'
p1016
I0
sS'imagegif '
p1017
I0
sS'openssl_pkcs12_export_to_file'
p1018
I0
sS'pg_send_execute'
p1019
I0
sS'hash_update_file+'
p1020
I2
sS'is_callable+'
p1021
I1
sS'openssl_pkey_get_private'
p1022
I0
sS'abs'
p1023
I1
sS'mb_strrichr+'
p1024
I2
sS'is_bool'
p1025
I1
sS'escapeshellcmd'
p1026
I1
sS'mysqli_fetch_all'
p1027
I0
sS'array_udiff+'
p1028
I3
sS'pspell_add_to_personal'
p1029
I0
sS'date_sunset+'
p1030
I1
sS'is_object'
p1031
I1
sS'oci_fetch_array'
p1032
I0
sS'oci_rollback'
p1033
I0
sS'ibase_blob_cancel'
p1034
I0
sS'enchant_dict_check'
p1035
I0
sS'shmop_delete'
p1036
I0
sS'mysql_query'
p1037
I0
sS'get_cfg_var'
p1038
I1
sS'popen'
p1039
I2
sS'snmp3_real_walk'
p1040
I0
sS'set_include_path'
p1041
I1
sS'mssql_rows_affected'
p1042
I0
sS'finfo_file+'
p1043
I2
sS'openssl_x509_export_to_file'
p1044
I0
sS'enchant_dict_quick_check'
p1045
I0
sS'filetype'
p1046
I1
sS'openssl_pkcs12_read'
p1047
I0
sS'base64_encode'
p1048
I1
sS'xml_parse_into_struct+'
p1049
I3
sS'deg2rad'
p1050
I1
sS'mysqli_link_construct'
p1051
I0
sS'imagecolortransparent'
p1052
I0
sS'output_add_rewrite_var'
p1053
I2
sS'is_numeric'
p1054
I1
sS'mysql_num_rows'
p1055
I0
sS'xmlwriter_flush+'
p1056
I1
sS'array_filter+'
p1057
I1
sS'socket_create_listen'
p1058
I0
sS'xmlwriter_start_cdata'
p1059
I1
sS'ibase_free_query'
p1060
I0
sS'openssl_pkcs7_sign'
p1061
I0
sS'imap_fetch_overview'
p1062
I0
sS'ftp_systype'
p1063
I0
sS'mysql_fetch_lengths'
p1064
I0
sS'mysqli_real_query'
p1065
I0
sS'pg_result_status'
p1066
I0
sS'oci_lob_write_temporary'
p1067
I0
sS'iterator_to_array+'
p1068
I1
sS'floatval'
p1069
I1
sS'str_ireplace+'
p1070
I3
sS'bcpow'
p1071
I0
sS'msg_remove_queue'
p1072
I0
sS'imagecopymergegray'
p1073
I0
sS'dom_document_create_element'
p1074
I0
sS'sqlite_key'
p1075
I0
sS'mcrypt_enc_self_test'
p1076
I0
sS'wddx_serialize_value'
p1077
I0
sS'curl_setopt_array'
p1078
I0
sS'mysqli_row_seek'
p1079
I0
sS'odbc_specialcolumns'
p1080
I0
sS'atanh'
p1081
I1
sS'timezone_transitions_get+'
p1082
I1
sS'mysql_drop_db'
p1083
I0
sS'arsort+'
p1084
I1
sS'dom_element_get_attribute_node'
p1085
I0
sS'pg_lo_seek'
p1086
I0
sS'scandir+'
p1087
I1
sS'dom_element_get_attribute'
p1088
I0
sS'gethostbyname'
p1089
I1
sS'setcookie+'
p1090
I1
sS'gzdeflate+'
p1091
I1
sS'dba_close'
p1092
I0
sS'mysqli_stmt_get_warnings'
p1093
I0
sS'openssl_csr_export'
p1094
I0
sS'dom_node_compare_document_position'
p1095
I0
sS'date_timezone_get'
p1096
I1
sS'atan2'
p1097
I2
sS'strripos+'
p1098
I2
sS'pg_execute'
p1099
I0
sS'filter_input_array+'
p1100
I1
sS'ldap_get_option'
p1101
I0
sS'pcntl_wifexited'
p1102
I1
sS'dom_string_extend_find_offset16'
p1103
I0
sS'array_splice+'
p1104
I2
sS'ftp_chmod'
p1105
I0
sS'exec+'
p1106
I1
sS'posix_getrlimit'
p1107
I0
sS'setrawcookie+'
p1108
I1
sS'pg_set_error_verbosity'
p1109
I0
sS'array_unshift+'
p1110
I2
sS'socket_read'
p1111
I0
sS'imagepolygon'
p1112
I0
sS'token_name'
p1113
I1
sS'simplexml_load_file+'
p1114
I1
sS'stream_bucket_append'
p1115
I2
sS'ibase_blob_echo'
p1116
I0
sS'ob_end_clean'
p1117
I0
sS'mb_substr+'
p1118
I2
sS'array_unique+'
p1119
I1
sS'socket_set_block'
p1120
I0
sS'strcoll'
p1121
I2
sS'mysqli_dump_debug_info'
p1122
I0
sS'ldap_list'
p1123
I0
sS'odbc_field_num'
p1124
I0
sS'pg_lo_tell'
p1125
I0
sS'mssql_close'
p1126
I0
sS'mysqli_error'
p1127
I0
sS'system+'
p1128
I1
sS'shell_exec'
p1129
I1
sS'fmod'
p1130
I2
sS'com_dotnet_create_instance'
p1131
I0
sS'fileowner'
p1132
I1
sS'shmop_read'
p1133
I0
sS'zip_entry_name'
p1134
I0
sS'cal_info'
p1135
I0
sS'sybase_pconnect'
p1136
I0
sS'is_null'
p1137
I1
sS'mysqli_get_host_info'
p1138
I0
sS'curl_version'
p1139
I0
sS'openssl_verify'
p1140
I0
sS'gzencode+'
p1141
I1
sS'array_udiff_uassoc+'
p1142
I4
sS'strrchr'
p1143
I2
sS'dom_document_save_html_file'
p1144
I0
sS'mysql_set_charset'
p1145
I0
sS'dba_open'
p1146
I0
sS'com_message_pump'
p1147
I0
sS'variant_set'
p1148
I0
sS'dom_node_append_child'
p1149
I0
sS'curl_multi_select'
p1150
I0
sS'" funcs[i] "'
p1151
I0
sS'birdstep_rollback'
p1152
I0
sS'oci_collection_element_get'
p1153
I0
sS'array_udiff_assoc+'
p1154
I3
sS'getprotobyname'
p1155
I1
sS'stream_filter_register'
p1156
I2
sS'dom_nodelist_item'
p1157
I0
sS'socket_set_option'
p1158
I0
sS'ibase_field_info'
p1159
I0
sS'getservbyname'
p1160
I2
sS'pathinfo+'
p1161
I1
sS'explode+'
p1162
I2
sS'mysqli_fetch_field'
p1163
I0
sS'array_map+'
p1164
I2
sS'mysql_get_server_info'
p1165
I0
sS'hash_copy'
p1166
I1
sS'dom_characterdata_insert_data'
p1167
I0
sS'pg_field_size'
p1168
I0
sS'usleep'
p1169
I1
sS'dom_element_get_elements_by_tag_name'
p1170
I0
sS'header+'
p1171
I1
sS'is_array'
p1172
I1
sS'getservbyport'
p1173
I2
sS'imagesavealpha'
p1174
I0
sS'ctype_digit'
p1175
I1
sS'tam_ ##name'
p1176
I0
sS'imagegif'
p1177
I0
sS'socket_bind'
p1178
I0
sS'dom_xpath_query'
p1179
I0
sS'shm_has_var'
p1180
I0
sS'pg_lo_write'
p1181
I0
sS'timezone_location_get'
p1182
I1
sS'import_request_variables+'
p1183
I1
sS'imageinterlace'
p1184
I0
sS'imap_utf7_encode'
p1185
I0
sS'mysqli_result_construct'
p1186
I0
sS'dom_element_get_attribute_ns'
p1187
I0
sS'xmlwriter_output_memory+'
p1188
I1
sS'stream_socket_client+'
p1189
I1
sS'pg_field_table'
p1190
I0
sS'variant_pow'
p1191
I0
sS'oci_new_connect'
p1192
I0
sS'ibase_maintain_db'
p1193
I0
sS'shm_remove'
p1194
I0
sS'mssql_field_length'
p1195
I0
sS'dom_node_has_attributes'
p1196
I0
sS'count_chars+'
p1197
I1
sS'pg_num_fields'
p1198
I0
sS'pg_fetch_array'
p1199
I0
sS'sqlite_column'
p1200
I0
sS'spl_autoload_call'
p1201
I1
sS'dba_nextkey'
p1202
I0
sS'escapeshellarg'
p1203
I1
sS'mcrypt_get_cipher_name'
p1204
I0
sS'stream_wrapper_restore'
p1205
I1
sS'xmlwriter_start_element_ns'
p1206
I4
sS'dns_get_record+'
p1207
I1
sS'array_product'
p1208
I1
sS'exp'
p1209
I1
sS'snmp_get_quick_print'
p1210
I0
sS'enchant_broker_set_ordering'
p1211
I0
sS'imap_timeout'
p1212
I0
sS'strpos+'
p1213
I2
sS'sqlite_fetch_all'
p1214
I0
sS'mysqli_ssl_set'
p1215
I0
sS'oci_collection_trim'
p1216
I0
sS'ldap_next_reference'
p1217
I0
sS'fileperms'
p1218
I1
sS'timezone_offset_get'
p1219
I2
sS'pg_fetch_all'
p1220
I0
sS'dba_firstkey'
p1221
I0
sS'bzopen'
p1222
I0
sS'mysqli_get_client_info'
p1223
I0
sS'imagesettile'
p1224
I0
sS'imap_mailboxmsginfo'
p1225
I0
sS'openssl_x509_parse'
p1226
I0
sS'imap_scanmailbox'
p1227
I0
sS'odbc_primarykeys'
p1228
I0
sS'openssl_get_md_methods'
p1229
I0
sS'mssql_fetch_batch'
p1230
I0
sS'convert_uuencode'
p1231
I1
sS'ftp_rawlist'
p1232
I0
sS'imagecolorsforindex'
p1233
I0
sS'sybase_fetch_assoc'
p1234
I0
sS'stream_bucket_make_writeable'
p1235
I1
sS'posix_getpwuid'
p1236
I0
sS'enchant_broker_get_dict_path'
p1237
I0
sS'imagecolorallocate'
p1238
I0
sS'pcntl_strerror'
p1239
I1
sS'mb_convert_variables+'
p1240
I3
sS'sybase_query'
p1241
I0
sS'hebrev+'
p1242
I1
sS'substr_replace+'
p1243
I3
sS'openssl_private_encrypt'
p1244
I0
sS'pspell_new_personal'
p1245
I0
sS'xmlrpc_decode_request'
p1246
I0
sS'mysqli_stmt_free_result'
p1247
I0
sS'mysqli_get_cache_stats'
p1248
I0
sS'imagejpeg'
p1249
I0
sS'jewishtojd'
p1250
I0
sS'http_build_query+'
p1251
I1
sS'base_convert'
p1252
I3
sS'filter_has_var'
p1253
I2
sS'tidy_get_html_ver'
p1254
I0
sS'xmlwriter_start_pi'
p1255
I2
sS'imagepstext'
p1256
I0
sS'mb_encode_mimeheader+'
p1257
I1
sS'pg_num_rows'
p1258
I0
sS'socket_sendto'
p1259
I0
sS'ldap_sasl_bind'
p1260
I0
sS'mb_parse_str+'
p1261
I1
sS'oci_field_name'
p1262
I0
sS'ftp_get'
p1263
I0
sS'mcrypt_list_modes'
p1264
I0
sS'imap_status'
p1265
I0
sS'unregister_tick_function'
p1266
I1
sS'mysqli_stmt_execute'
p1267
I0
sS'mysqli_fetch_assoc'
p1268
I0
sS'bcsqrt'
p1269
I0
sS'mime_content_type'
p1270
I1
sS'array_reverse+'
p1271
I1
sS'odbc_errormsg'
p1272
I0
sS'tidy_get_status'
p1273
I0
sS'openssl_csr_new'
p1274
I0
sS'odbc_num_rows'
p1275
I0
sS'pack+'
p1276
I1
sS'mb_ereg+'
p1277
I2
sS'mssql_min_error_severity'
p1278
I0
sS'xml_set_element_handler'
p1279
I3
sS'socket_get_option'
p1280
I0
sS'posix_getpid'
p1281
I0
sS'birdstep_fieldname'
p1282
I0
sS'mysql_fetch_array'
p1283
I0
sS'asinh'
p1284
I1
sS'imap_binary'
p1285
I0
sS'oci_collection_assign'
p1286
I0
sS'oci_lob_load'
p1287
I0
sS'preg_grep+'
p1288
I2
sS'htmlspecialchars_decode+'
p1289
I1
sS'tidy_get_error_buffer'
p1290
I0
sS'strrpos+'
p1291
I2
sS'array_flip'
p1292
I1
sS'odbc_field_scale'
p1293
I0
sS'xmlrpc_server_add_introspection_data'
p1294
I0
sS'ibase_free_result'
p1295
I0
sS'mhash_get_hash_name'
p1296
I1
sS'dom_document_normalize_document'
p1297
I0
sS'zip_read'
p1298
I0
sS'oci_field_is_null'
p1299
I0
sS'xmlrpc_decode'
p1300
I0
sS'oci_lob_seek'
p1301
I0
sS'error_log+'
p1302
I1
sS'pg_lo_open'
p1303
I0
sS'recode_file'
p1304
I0
sS'simplexml_import_dom+'
p1305
I1
sS'passthru+'
p1306
I1
sS'imap_last_error'
p1307
I0
sS'mysqli_stmt_insert_id'
p1308
I0
sS'variant_date_to_timestamp'
p1309
I0
sS'snmpgetnext'
p1310
I0
sS'uasort'
p1311
I2
sS'pcntl_wait+'
p1312
I1
sS'set_time_limit'
p1313
I1
sS'uksort'
p1314
I2
sS'bcmul'
p1315
I0
sS'mysqli_read_query_result'
p1316
I0
sS'highlight_string+'
p1317
I1
sS'xml_get_current_column_number'
p1318
I1
sS'mssql_next_result'
p1319
I0
sS'imagecreatefromgd'
p1320
I0
sS'mcrypt_enc_is_block_mode'
p1321
I0
sS'curl_multi_add_handle'
p1322
I0
sS'socket_send'
p1323
I0
sS'mysqli_ping'
p1324
I0
sS'dechex'
p1325
I1
sS'fflush'
p1326
I1
sS'imagesetthickness'
p1327
I0
sS'fd_set'
p1328
I0
sS'xmlwriter_write_attribute'
p1329
I3
sS'xmlwriter_set_indent'
p1330
I2
sS'ibase_modify_user'
p1331
I0
sS'xml_set_unparsed_entity_decl_handler'
p1332
I2
sS'oci_collection_append'
p1333
I0
sS'lchown'
p1334
I2
sS'session_is_registered'
p1335
I1
sS'enchant_broker_set_dict_path'
p1336
I0
sS'mysql_close'
p1337
I0
sS'mb_strimwidth+'
p1338
I3
sS'is_infinite'
p1339
I1
sS'openssl_pkey_get_details'
p1340
I0
sS'variant_mul'
p1341
I0
sS'imagecopy'
p1342
I0
sS'sqlite_close'
p1343
I0
sS'mysql_field_flags'
p1344
I0
sS'imap_thread'
p1345
I0
sS'imap_search'
p1346
I0
sS'array_pop'
p1347
I1
sS'dba_key_split'
p1348
I0
sS'ibase_restore'
p1349
I0
sS'tidy_getopt'
p1350
I0
sS'imagearc'
p1351
I0
sS'mssql_num_rows'
p1352
I0
sS'mysqli_fetch_fields'
p1353
I0
sS'enchant_broker_request_dict'
p1354
I0
sS'ldap_t61_to_8859'
p1355
I0
sS'dom_string_extend_find_offset32'
p1356
I0
sS'array_reduce+'
p1357
I2
sS'imap_setacl'
p1358
I0
sS'tidy_get_opt_doc'
p1359
I0
sS'mcrypt_generic_deinit'
p1360
I0
sS'oci_pconnect'
p1361
I0
sS'imagefttext'
p1362
I0
sS'imap_setflag_full'
p1363
I0
sS'oci_num_fields'
p1364
I0
sS'enchant_dict_suggest'
p1365
I0
sS'socket_set_nonblock'
p1366
I0
sS'mysqli_num_fields'
p1367
I0
sS'posix_ctermid'
p1368
I0
sS'iterator_apply+'
p1369
I2
sS'dom_namednodemap_item'
p1370
I0
sS'sybase_free_result'
p1371
I0
sS'array_search+'
p1372
I2
sS'imap_fetchheader'
p1373
I0
sS'variant_int'
p1374
I0
sS'mcrypt_ofb'
p1375
I0
sS'mcrypt_enc_get_supported_key_sizes'
p1376
I0
sS'preg_quote+'
p1377
I1
sS'oci_lob_rewind'
p1378
I0
sS'mysqli_set_charset'
p1379
I0
sS'mysqli_stmt_param_count'
p1380
I0
sS'pg_select'
p1381
I0
sS'mysql_thread_id'
p1382
I0
sS'xml_set_character_data_handler'
p1383
I2
sS'eregi+'
p1384
I2
sS'sqlite_popen'
p1385
I0
sS'openssl_x509_checkpurpose'
p1386
I0
sS'dom_node_insert_before'
p1387
I0
sS'spl_autoload_unregister'
p1388
I1
sS'file+'
p1389
I1
sS'filter_var+'
p1390
I1
sS'sybase_num_fields'
p1391
I0
sS'usort'
p1392
I2
sS'substr+'
p1393
I2
sS'imap_utf8'
p1394
I0
sS'mb_convert_case+'
p1395
I2
sS'mysql_list_dbs'
p1396
I0
sS'mb_encoding_aliases'
p1397
I1
sS'variant_imp'
p1398
I0
sS'odbc_foreignkeys'
p1399
I0
sS'mysqli_stmt_affected_rows'
p1400
I0
sS'link'
p1401
I2
sS'imap_mail_move'
p1402
I0
sS'sybase_affected_rows'
p1403
I0
sS'ibase_drop_db'
p1404
I0
sS'mysqli_field_count'
p1405
I0
sS'dom_domimplementationsource_get_domimplementations'
p1406
I0
sS'spl_object_hash'
p1407
I1
sS'imagecolorat'
p1408
I0
sS'ldap_err2str'
p1409
I0
sS'constant'
p1410
I1
sS'fread'
p1411
I2
sS'date_create'
p1412
I0
sS'stream_socket_server+'
p1413
I1
sS'stream_wrapper_unregister'
p1414
I1
sS'pcntl_signal+'
p1415
I2
sS'mysql_create_db'
p1416
I0
sS'stripslashes'
p1417
I1
sS'ldap_8859_to_t61'
p1418
I0
sS'mysqli_autocommit'
p1419
I0
sS'mysqli_close'
p1420
I0
sS'chgrp'
p1421
I2
sS'pcntl_waitpid+'
p1422
I2
sS'tidy_diagnose'
p1423
I0
sS'enchant_broker_get_error'
p1424
I0
sS'is_finite'
p1425
I1
sS'mysqli_change_user'
p1426
I0
sS'snmp_read_mib'
p1427
I0
sS'closedir'
p1428
I0
sS'mysqli_connect'
p1429
I0
sS'stream_supports_lock'
p1430
I1
sS'mysqli_stmt_result_metadata'
p1431
I0
sS'soundex'
p1432
I1
sS'sybase_fetch_row'
p1433
I0
sS'mcrypt_cbc'
p1434
I0
sS'mcrypt_decrypt'
p1435
I0
sS'copy+'
p1436
I2
sS'curl_multi_exec'
p1437
I0
sS'oci_server_version'
p1438
I0
sS'mysqli_get_charset'
p1439
I0
sS'ldap_mod_del'
p1440
I0
sS'mssql_get_last_message'
p1441
I0
sS'fclose'
p1442
I1
sS'imagealphablending'
p1443
I0
sS'oci_close'
p1444
I0
sS'imap_list'
p1445
I0
sS'odbc_autocommit'
p1446
I0
sS'imap_append'
p1447
I0
sS'proc_get_status'
p1448
I1
sS'posix_getppid'
p1449
I0
sS'mcrypt_enc_is_block_algorithm'
p1450
I0
sS'imagecopyresampled'
p1451
I0
sS'oci_connect'
p1452
I0
sS'ibase_db_info'
p1453
I0
sS'mssql_data_seek'
p1454
I0
sS'com_load_typelib'
p1455
I0
sS'is_soap_fault'
p1456
I0
sS'mysqli_real_escape_string'
p1457
I0
sS'curl_copy_handle'
p1458
I0
sS'xmlwriter_write_dtd_attlist'
p1459
I3
sS'posix_getgid'
p1460
I0
sS'str_pad+'
p1461
I2
sS'stream_set_write_buffer'
p1462
I2
sS'imap_num_msg'
p1463
I0
sS'pg_copy_from'
p1464
I0
sS'imap_fetchmime'
p1465
I0
sS'similar_text+'
p1466
I2
sS'jdtofrench'
p1467
I0
sS'pg_delete'
p1468
I0
sS'money_format'
p1469
I2
sS'convert_uudecode'
p1470
I1
sS'odbc_do'
p1471
I0
sS'date_sub'
p1472
I2
sS'mssql_min_message_severity'
p1473
I0
sS'mysqli_prepare'
p1474
I0
sS'sem_get'
p1475
I0
sS'readfile+'
p1476
I1
sS'openssl_pkey_export_to_file'
p1477
I0
sS'zip_entry_close'
p1478
I0
sS'opendir+'
p1479
I1
sS'odbc_fetch_into'
p1480
I0
sS'odbc_data_source'
p1481
I0
sS'array_diff_ukey+'
p1482
I3
sS'imagepng'
p1483
I0
sS'proc_open+'
p1484
I3
sS'openssl_pkey_get_public'
p1485
I0
sS'pg_affected_rows'
p1486
I0
sS'oci_bind_by_name'
p1487
I0
sS'sinh'
p1488
I1
sS'com_create_guid'
p1489
I0
sS'spl_autoload+'
p1490
I1
sS'variant_cast'
p1491
I0
sS'htmlspecialchars+'
p1492
I1
sS'date_default_timezone_set'
p1493
I1
sS'ftp_nb_fput'
p1494
I0
sS'xmlwriter_end_attribute'
p1495
I1
sS'finfo_buffer+'
p1496
I2
sS'xml_set_processing_instruction_handler'
p1497
I2
sS'dom_element_set_attribute_ns'
p1498
I0
sS'openssl_seal'
p1499
I0
sS'dom_document_save'
p1500
I0
sS'oci_lob_truncate'
p1501
I0
sS'tidy_repair_file'
p1502
I0
sS'call_user_method+'
p1503
I2
sS'mysqli_kill'
p1504
I0
sS'pg_transaction_status'
p1505
I0
sS'hebrevc+'
p1506
I1
sS'pg_last_oid'
p1507
I0
sS'imap_fetchtext'
p1508
I0
sS'fputcsv+'
p1509
I2
sS'dom_document_get_elements_by_tag_name'
p1510
I0
sS'shm_put_var'
p1511
I0
sS'forward_static_call+'
p1512
I1
sS'substr_count+'
p1513
I2
sS'ibase_blob_info'
p1514
I0
sS'next'
p1515
I1
sS'dom_document_create_attribute_ns'
p1516
I0
sS'chr'
p1517
I0
sS'oci_fetch_row'
p1518
I0
sS'tidy_is_xml'
p1519
I0
sS'pspell_config_ignore'
p1520
I0
sS'mysqli_errno'
p1521
I0
sS'posix_setpgid'
p1522
I0
sS'dom_document_create_processing_instruction'
p1523
I0
sS'use_soap_error_handler'
p1524
I0
sS'dom_node_is_same_node'
p1525
I0
sS'sybase_min_client_severity'
p1526
I0
sS'com_event_sink'
p1527
I0
sS'mysqli_stmt_fetch'
p1528
I0
sS'pg_field_is_null'
p1529
I0
sS'imageline'
p1530
I0
sS'posix_getpgid'
p1531
I0
sS'mysql_field_name'
p1532
I0
sS'odbc_fetch_object'
p1533
I0
sS'chdir'
p1534
I1
sS'imagecreate'
p1535
I0
sS'jpeg2wbmp'
p1536
I0
sS'imap_savebody'
p1537
I0
sS'mssql_field_seek'
p1538
I0
sS'utf8_decode'
p1539
I1
sS'pspell_config_runtogether'
p1540
I0
sS'bcmod'
p1541
I0
sS'hexdec'
p1542
I1
sS'oci_lob_import'
p1543
I0
sS'ftp_get_option'
p1544
I0
sS'openssl_x509_free'
p1545
I0
sS'fprintf'
p1546
I0
sS'xmlwriter_write_element_ns+'
p1547
I4
sS'mb_ereg_match+'
p1548
I2
sS'mysql_fetch_row'
p1549
I0
sS'tan'
p1550
I1
sS'date_create_from_format+'
p1551
I2
sS'tidy_get_output'
p1552
I0
sS'pspell_config_repl'
p1553
I0
sS'imap_ping'
p1554
I0
sS'pspell_new_config'
p1555
I0
sS'mysqli_data_seek'
p1556
I0
sS'oci_num_rows'
p1557
I0
sS'pcntl_exec+'
p1558
I1
sS'mysqli_options'
p1559
I0
sS'posix_get_last_error'
p1560
I0
sS'imagegd2'
p1561
I0
sS'quoted_printable_encode'
p1562
I1
sS'array_keys+'
p1563
I1
sS'ftp_set_option'
p1564
I0
sS'shmop_open'
p1565
I0
sS'mysql_free_result'
p1566
I0
sS'zip_close'
p1567
I0
sS'mysql_field_type'
p1568
I0
sS'ctype_cntrl'
p1569
I1
sS'imap_rfc822_parse_adrlist'
p1570
I0
sS'tidy_access_count'
p1571
I0
sS'curl_setopt'
p1572
I0
sS'sybase_field_seek'
p1573
I0
sS'imagecolorclosest'
p1574
I0
sS'xml_set_start_namespace_decl_handler'
p1575
I2
sS'date_sunrise+'
p1576
I1
sS'assert_options+'
p1577
I1
sS'imagechar'
p1578
I0
sS'dom_namednodemap_set_named_item_ns'
p1579
I0
sS'rewinddir'
p1580
I0
sS'xsl_xsltprocessor_transform_to_xml'
p1581
I0
sS'xmlrpc_server_register_introspection_callback'
p1582
I0
sS'xml_set_notation_decl_handler'
p1583
I2
sS'rmdir+'
p1584
I1
sS'ftp_rename'
p1585
I0
sS'odbc_longreadlen'
p1586
I0
sS'checkdate'
p1587
I3
sS'imagecreatefromgd2part'
p1588
I0
sS'mb_strripos+'
p1589
I2
sS'mysql_field_len'
p1590
I0
sS'zip_entry_compressedsize'
p1591
I0
sS'ftp_fget'
p1592
I0
sS'imagecolormatch'
p1593
I0
sS'strcspn+'
p1594
I2
sS'imap_qprint'
p1595
I0
sS'basename+'
p1596
I1
sS'mysqli_fetch_array'
p1597
I0
sS'fseek+'
p1598
I2
sS'ldap_get_attributes'
p1599
I0
sS'dom_document_schema_validate_file'
p1600
I0
sS'oci_set_client_identifier'
p1601
I0
sS'mysqli_debug'
p1602
I0
sS'ocifetchinto'
p1603
I0
sS'xsl_xsltprocessor_has_exslt_support'
p1604
I0
sS'gethostbyaddr'
p1605
I1
sS'glob+'
p1606
I1
sS'pg_prepare'
p1607
I0
sS'mb_ereg_search'
p1608
I0
sS'variant_cmp'
p1609
I0
sS'decoct'
p1610
I1
sS'is_file'
p1611
I1
sS'mysql_pconnect'
p1612
I0
sS'array_combine'
p1613
I2
sS'image_type_to_extension+'
p1614
I1
sS'sybase_close'
p1615
I0
sS'token_get_all'
p1616
I1
sS'bzerrstr'
p1617
I0
sS'oci_free_statement'
p1618
I0
sS'ftp_delete'
p1619
I0
sS'fgetcsv+'
p1620
I1
sS'png2wbmp'
p1621
I0
sS'sqlite_fetch_array'
p1622
I0
sS'birdstep_freeresult'
p1623
I0
sS'curl_init'
p1624
I0
sS'stripos+'
p1625
I2
sS'dom_domimplementationlist_item'
p1626
I0
sS'mysqli_embedded_server_end'
p1627
I0
sS'enchant_broker_list_dicts'
p1628
I0
sS'curl_multi_remove_handle'
p1629
I0
sS'dba_handlers'
p1630
I0
sS'ldap_dn2ufn'
p1631
I0
sS'parse_ini_file+'
p1632
I1
sS'mssql_connect'
p1633
I0
sS'imagecolorexactalpha'
p1634
I0
sS'enchant_broker_init'
p1635
I0
sS'ibase_fetch_object'
p1636
I0
sS'dom_namelist_get_namespace_uri'
p1637
I0
sS'curl_exec'
p1638
I0
sS'imagecolorresolve'
p1639
I0
sS'mysqli_connect_errno'
p1640
I0
sS'mcrypt_generic_init'
p1641
I0
sS'mysqli_get_warnings'
p1642
I0
sS'mysql_data_seek'
p1643
I0
sS'pg_meta_data'
p1644
I0
sS'lcfirst'
p1645
I1
sS'array_intersect_assoc+'
p1646
I2
sS'birdstep_close'
p1647
I0
sS'socket_shutdown'
p1648
I0
sS'com_print_typeinfo'
p1649
I0
sS'mb_decode_mimeheader'
p1650
I1
sS'xmlwriter_end_comment'
p1651
I1
sS'ocigetbufferinglob'
p1652
I0
sS'snmp2_real_walk'
p1653
I0
sS'pg_version'
p1654
I0
sS'odbc_exec'
p1655
I0
sS'oci_field_scale'
p1656
I0
sS'ibase_blob_open'
p1657
I0
sS'bzcompress'
p1658
I0
sS'ibase_errmsg'
p1659
I0
sS'ftp_site'
p1660
I0
sS'gmstrftime+'
p1661
I1
sS'mysqli_stmt_data_seek'
p1662
I0
sS'filectime'
p1663
I1
sS'dba_exists'
p1664
I0
sS'odbc_field_type'
p1665
I0
sS'shmop_write'
p1666
I0
sS'idate+'
p1667
I1
sS'tidy_error_count'
p1668
I0
sS'xml_set_end_namespace_decl_handler'
p1669
I2
sS'sybase_data_seek'
p1670
I0
sS'imagerotate'
p1671
I0
sS'strval'
p1672
I1
sS'mb_output_handler'
p1673
I2
sS'dba_replace'
p1674
I0
sS'class_parents+'
p1675
I1
sS'soap_encode_to_zval'
p1676
I0
sS'mb_strtoupper+'
p1677
I1
sS'imagepsslantfont'
p1678
I0
sS'dom_characterdata_delete_data'
p1679
I0
sS'socket_connect'
p1680
I0
sS'frenchtojd'
p1681
I0
sS'imagegammacorrect'
p1682
I0
sS'imagecolorclosesthwb'
p1683
I0
sS'imagecreatefromgif'
p1684
I0
sS'ftp_ssl_connect'
p1685
I0
sS'xsl_xsltprocessor_register_php_functions'
p1686
I0
sS'enchant_dict_get_error'
p1687
I0
sS'socket_recvfrom'
p1688
I0
sS'imap_listscan'
p1689
I0
sS'dom_domimplementationsource_get_domimplementation'
p1690
I0
sS'pspell_save_wordlist'
p1691
I0
sS'socket_clear_error'
p1692
I0
sS'pg_connect'
p1693
I0
sS'mysqli_stmt_errno'
p1694
I0
sS'ftp_mdtm'
p1695
I0
sS'openssl_decrypt'
p1696
I0
sS'date_timestamp_get'
p1697
I1
sS'time_sleep_until'
p1698
I1
sS'imap_renamemailbox'
p1699
I0
sS'dom_document_validate'
p1700
I0
sS'pg_field_num'
p1701
I0
sS'oci_new_collection'
p1702
I0
sS'odbc_statistics'
p1703
I0
sS'imap_mail_copy'
p1704
I0
sS'mysql_db_query'
p1705
I0
sS'xmlwriter_end_pi'
p1706
I1
sS'sha1_file+'
p1707
I1
sS'ereg+'
p1708
I2
sS'imagestringup'
p1709
I0
sS'xmlwriter_write_dtd+'
p1710
I2
sS'register_shutdown_function'
p1711
I0
sS'oci_free_collection'
p1712
I0
sS'is_dir'
p1713
I1
sS'mysqli_multi_query'
p1714
I0
sS'dom_node_is_supported'
p1715
I0
sS'array_diff_key+'
p1716
I2
sS'vprintf+'
p1717
I1
sS'mysqli_embedded_server_start'
p1718
I0
sS'mysqli_stmt_get_result'
p1719
I0
sS'var_export+'
p1720
I1
sS'ob_clean'
p1721
I0
sS'juliantojd'
p1722
I0
sS'stream_resolve_include_path'
p1723
I1
sS'asort+'
p1724
I1
sS'ezmlm_hash'
p1725
I1
sS'bcdiv'
p1726
I0
sS'str_word_count+'
p1727
I1
sS'key'
p1728
I1
sS'ftp_pasv'
p1729
I0
sS'odbc_next_result'
p1730
I0
sS'pg_field_type_oid'
p1731
I0
sS'imap_errors'
p1732
I0
sS'mb_substr_count+'
p1733
I2
sS'array_key_exists'
p1734
I2
sS'mb_convert_encoding+'
p1735
I2
sS'mcrypt_enc_is_block_algorithm_mode'
p1736
I0
sS'mssql_guid_string'
p1737
I0
sS'mcrypt_enc_get_block_size'
p1738
I0
sS'mysqli_connect_error'
p1739
I0
sS'imagecolordeallocate'
p1740
I0
sS'mb_stristr+'
p1741
I2
sS'imap_mail_compose'
p1742
I0
sS'odbc_close_all'
p1743
I0
sS'pcntl_wifsignaled'
p1744
I1
sS'octdec'
p1745
I1
sS'timezone_name_get'
p1746
I1
sS'dom_node_replace_child'
p1747
I0
sS'ldap_start_tls'
p1748
I0
sS'imageftbbox'
p1749
I0
sS'snmp2_get'
p1750
I0
sS'mysqli_stmt_send_long_data'
p1751
I0
sS'dom_document_rename_node'
p1752
I0
sS'mysqli_stmt_field_count'
p1753
I0
sS'xmlwriter_end_dtd_attlist'
p1754
I1
sS'split+'
p1755
I2
sS'mb_strwidth+'
p1756
I1
sS'xmlwriter_text'
p1757
I2
sS'sort+'
p1758
I1
sS'assert'
p1759
I1
sS'levenshtein'
p1760
I0
sS'sqlite_rewind'
p1761
I0
sS'ldap_error'
p1762
I0
sS'mysqli_more_results'
p1763
I0
sS'array_intersect_ukey+'
p1764
I3
sS'dom_document_create_comment'
p1765
I0
sS'xmlwriter_end_dtd_element'
p1766
I1
sS'ltrim+'
p1767
I1
sS'mysqli_get_server_version'
p1768
I0
sS'ldap_connect'
p1769
I0
sS'vsprintf+'
p1770
I1
sS'dom_xpath_evaluate'
p1771
I0
sS'pg_copy_to'
p1772
I0
sS'mysqli_poll'
p1773
I0
sS'getdir'
p1774
I0
sS'dba_insert'
p1775
I0
sS'birdstep_connect'
p1776
I0
sS'wddx_packet_end'
p1777
I0
sS'xmlwriter_write_attribute_ns'
p1778
I5
sS'imap_base64'
p1779
I0
sS'rawurldecode'
p1780
I1
sS'sqrt'
p1781
I1
sS'msg_set_queue'
p1782
I0
sS'openssl_pkey_free'
p1783
I0
sS'imagecolorclosestalpha'
p1784
I0
sS'mysql_errno'
p1785
I0
sS'pg_port'
p1786
I0
sS'imap_uid'
p1787
I0
sS'ftp_cdup'
p1788
I0
sS'fileinode'
p1789
I1
sS'ctype_upper'
p1790
I1
sS'xmlwriter_start_attribute'
p1791
I2
sS'tdm_ ##name'
p1792
I0
sS'zip_entry_read'
p1793
I0
sS'ftp_alloc'
p1794
I0
sS'iconv_strpos'
p1795
I0
sS'stream_get_meta_data'
p1796
I1
sS'dom_node_has_child_nodes'
p1797
I0
sS'gmdate+'
p1798
I1
sS'xmlwriter_start_dtd_attlist'
p1799
I2
sS'bzdecompress'
p1800
I0
sS'xsl_xsltprocessor_set_parameter'
p1801
I0
sS'gregoriantojd'
p1802
I0
sS'dom_domconfiguration_can_set_parameter'
p1803
I0
sS'imagecreatefromgd2'
p1804
I0
sS'krsort+'
p1805
I1
sS'xml_get_current_byte_index'
p1806
I1
sS'rsort+'
p1807
I1
sS'imagesetpixel'
p1808
I0
sS'filter_input+'
p1809
I2
sS'pcntl_wtermsig'
p1810
I1
sS'mysqli_reap_async_query'
p1811
I0
sS'gzcompress+'
p1812
I1
sS'dom_domstringlist_item'
p1813
I0
sS'ibase_affected_rows'
p1814
I0
sS'config_get_hash'
p1815
I0
sS'enchant_broker_describe'
p1816
I0
sS'enchant_dict_is_in_session'
p1817
I0
sS'shm_remove_var'
p1818
I0
sS'parse_url+'
p1819
I1
sS'imagejpeg '
p1820
I0
sS'dom_node_lookup_prefix'
p1821
I0
sS'ibase_server_info'
p1822
I0
sS'pspell_config_data_dir'
p1823
I0
sS'sqlite_current'
p1824
I0
sS'mysqli_stmt_bind_param'
p1825
I0
sS'tidy_get_html'
p1826
I0
sS'imap_create'
p1827
I0
sS'ldap_unbind'
p1828
I0
sS'sybase_fetch_array'
p1829
I0
sS'var_dump+'
p1830
I1
sS'oci_result'
p1831
I0
sS'mb_ereg_search_regs'
p1832
I0
sS'posix_geteuid'
p1833
I0
sS'oci_lob_append'
p1834
I0
sS'socket_select'
p1835
I0
sS'mb_detect_encoding+'
p1836
I1
sS'mysqli_stmt_reset'
p1837
I0
sS'ftp_rmdir'
p1838
I0
sS'sqlite_create_aggregate'
p1839
I0
sS'pg_unescape_bytea'
p1840
I0
sS'xmlwriter_start_comment'
p1841
I1
sS'mysql_list_processes'
p1842
I0
sS'pspell_config_personal'
p1843
I0
sS'odbc_field_name'
p1844
I0
sS'pclose'
p1845
I1
sS'strtok+'
p1846
I1
sS'array_merge+'
p1847
I1
sS'snmp_get_valueretrieval'
p1848
I0
sS'xml_parser_set_option'
p1849
I3
sS'is_nan'
p1850
I1
sS'sybase_connect'
p1851
I0
sS'ctype_xdigit'
p1852
I1
sS'get_meta_tags+'
p1853
I1
sS'phpinfo'
p1854
I0
sS'jddayofweek'
p1855
I0
sS'xmlwriter_start_document+'
p1856
I1
sS'session_register+'
p1857
I1
sS'imap_lsub_full'
p1858
I0
sS'mssql_init'
p1859
I0
sS'mysqli_stmt_error'
p1860
I0
sS'socket_accept'
p1861
I0
sS'symlink'
p1862
I2
sS'dom_text_is_whitespace_in_element_content'
p1863
I0
sS'xmlwriter_end_cdata'
p1864
I1
sS'dom_attr_is_id'
p1865
I0
sS'php_strip_whitespace'
p1866
I1
sS'oci_set_edition'
p1867
I0
sS'mysqli_stmt_prepare'
p1868
I0
sS'str_replace+'
p1869
I3
sS'strspn+'
p1870
I2
sS'sybase_fetch_object'
p1871
I0
sS'variant_idiv'
p1872
I0
sS'dom_domconfiguration_get_parameter'
p1873
I0
sS'tidy_parse_file'
p1874
I0
sS'zip_entry_compressionmethod'
p1875
I0
sS'dba_delete'
p1876
I0
sS'ftp_connect'
p1877
I0
sS'long2ip'
p1878
I1
sS'array_sum'
p1879
I1
sS'socket_create_pair'
p1880
I0
sS'ibase_blob_get'
p1881
I0
sS'curl_errno'
p1882
I0
sS'tidy_is_xhtml'
p1883
I0
sS'xmlwriter_start_dtd+'
p1884
I2
sS'dom_characterdata_substring_data'
p1885
I0
sS'filesize'
p1886
I1
sS'odbc_close'
p1887
I0
sS'log10'
p1888
I1
sS'ctype_punct'
p1889
I1
sS'user_sprintf'
p1890
I0
sS'imap_check'
p1891
I0
sS'odbc_columns'
p1892
I0
sS'sql_regcase'
p1893
I1
sS'getenv'
p1894
I1
sS'natcasesort'
p1895
I1
sS'oci_lob_eof'
p1896
I0
sS'imap_utf7_decode'
p1897
I0
sS'wddx_packet_start'
p1898
I0
sS'cal_to_jd'
p1899
I0
sS'pg_fetch_object'
p1900
I0
sS'odbc_num_fields'
p1901
I0
sS'cal_days_in_month'
p1902
I0
sS'mysql_escape_string'
p1903
I0
sS'imagepsloadfont'
p1904
I0
sS'curl_multi_getcontent'
p1905
I0
sS'pg_parameter_status'
p1906
I0
sS'imap_clearflag_full'
p1907
I0
sS'log1p'
p1908
I1
sS'dom_element_has_attribute'
p1909
I0
sS'strstr+'
p1910
I2
sS'pg_lo_unlink'
p1911
I0
sS'mb_strpos+'
p1912
I2
sS'stream_set_timeout+'
p1913
I2
sS'xmlrpc_server_destroy'
p1914
I0
sS'pg_escape_string'
p1915
I0
sS'odbc_binmode'
p1916
I0
sS'trim+'
p1917
I1
sS'fpassthru'
p1918
I1
sS'tidy_get_release'
p1919
I0
sS'ibase_gen_id'
p1920
I0
sS'bin2hex'
p1921
I1
sS'dom_characterdata_append_data'
p1922
I0
sS'oci_define_by_name'
p1923
I0
sS'oci_fetch'
p1924
I0
sS'mysqli_character_set_name'
p1925
I0
sS'array_uintersect_uassoc+'
p1926
I4
sS'readlink'
p1927
I1
sS'date_sun_info'
p1928
I3
sS'pg_connection_reset'
p1929
I0
sS'odbc_tableprivileges'
p1930
I0
sS'xml_parser_get_option'
p1931
I2
sS'array_pad'
p1932
I3
sS'sqlite_num_fields'
p1933
I0
sS'xsl_xsltprocessor_transform_to_uri'
p1934
I0
sS'variant_neg'
p1935
I0
sS'xmlwriter_write_dtd_entity+'
p1936
I3
sS'tnm_ ##name'
p1937
I0
sS'openssl_pkcs12_export'
p1938
I0
sS'imap_fetchbody'
p1939
I0
sS'gd_info'
p1940
I0
s.