(dp0
S'DOMConfiguration'
p1
(dp2
S'canSetParameter'
p3
I0
sS'setParameter'
p4
I0
sS'handleError'
p5
I0
sS'getParameter'
p6
I0
ssS'DOMDocument'
p7
(dp8
S'createAttribute'
p9
I1
sS'adoptNode'
p10
I0
sS'createElement+'
p11
I1
sS'createComment'
p12
I1
sS'createElementNS+'
p13
I2
sS'saveHTMLFile'
p14
I1
sS'importNode+'
p15
I1
sS'createCDATASection'
p16
I1
sS'getElementsByTagName'
p17
I1
sS'getElementsByTagNameNS'
p18
I2
sS'renameNode'
p19
I0
sS'createEntityReference'
p20
I1
sS'save+'
p21
I1
sS'schemaValidate'
p22
I1
sS'validate'
p23
I0
sS'schemaValidateSource'
p24
I1
sS'createProcessingInstruction+'
p25
I1
sS'relaxNGValidateSource'
p26
I1
sS'relaxNGValidate'
p27
I1
sS'getElementById'
p28
I1
sS'createAttributeNS'
p29
I2
sS'createTextNode'
p30
I1
ssS'DOMElement'
p31
(dp32
S'setNamedItemNS+'
p33
I1
sS'setAttribute+'
p34
I1
sS'removeAttribute'
p35
I0
sS'getAttribute'
p36
I0
sS'removeAttributeNS+'
p37
I1
sS'hasAttributeNS'
p38
I0
sS'getNamedItemNS+'
p39
I1
sS'getAttributeNode+'
p40
I1
sS'getNamedItem+'
p41
I1
sS'removeNamedItem+'
p42
I1
sS'setAttributeNS'
p43
I0
sS'getAttributeNS'
p44
I0
sS'removeAttributeNode'
p45
I0
sS'DOMNamedNodeMap'
p46
I0
sS'removeAttribute+'
p47
I1
sS'item'
p48
I0
sS'getAttributeNode'
p49
I0
sS'getNamedItemNS'
p50
I0
sS'getAttribute+'
p51
I1
sS'setAttributeNodeNS+'
p52
I1
sS'hasAttribute+'
p53
I1
sS'setAttributeNS+'
p54
I1
sS'item+'
p55
I1
sS'setIdAttribute'
p56
I0
sS'getElementsByTagNameNS+'
p57
I1
sS'removeNamedItem'
p58
I0
sS'removeAttributeNS'
p59
I0
sS'removeNamedItemNS+'
p60
I1
sS'DOMNamedNodeMap+'
p61
I1
sS'setNamedItemNS'
p62
I0
sS'setAttributeNodeNS'
p63
I0
sS'getElementsByTagName'
p64
I0
sS'getElementsByTagNameNS'
p65
I0
sS'setIdAttributeNode'
p66
I0
sS'getAttributeNS+'
p67
I1
sS'setIdAttribute+'
p68
I1
sS'setAttributeNode'
p69
I0
sS'setNamedItem'
p70
I0
sS'getAttributeNodeNS+'
p71
I1
sS'setNamedItem+'
p72
I1
sS'removeNamedItemNS'
p73
I0
sS'removeAttributeNode+'
p74
I1
sS'hasAttributeNS+'
p75
I1
sS'getElementsByTagName+'
p76
I1
sS'getNamedItem'
p77
I0
sS'setAttribute'
p78
I0
sS'setIdAttributeNS+'
p79
I1
sS'setIdAttributeNode+'
p80
I1
sS'setIdAttributeNS'
p81
I0
sS'getAttributeNodeNS'
p82
I0
sS'setAttributeNode+'
p83
I1
sS'hasAttribute'
p84
I0
ssS'DOMCharacterData'
p85
(dp86
S'appendData'
p87
I1
sS'deleteData'
p88
I2
sS'substringData'
p89
I2
sS'insertData'
p90
I2
sS'replaceData'
p91
I3
ssS'DOMNodeList'
p92
(dp93
S'item'
p94
I1
ssS'DOMText'
p95
(dp96
S'replaceWholeText'
p97
I0
sS'splitText'
p98
I1
ssS'ZipArchive'
p99
(dp100
S'unchangeName'
p101
I0
sS'unchangeIndex'
p102
I0
sS'addPattern'
p103
I0
sS'addEmptyDir'
p104
I0
sS'getStatusString'
p105
I0
sS'close'
p106
I0
sS'open'
p107
I0
sS'setArchiveComment'
p108
I0
sS'setCommentIndex'
p109
I0
sS'getStream'
p110
I0
sS'renameIndex'
p111
I0
sS'setCommentName'
p112
I0
sS'unchangeAll'
p113
I0
sS'deleteIndex'
p114
I0
sS'addFromString'
p115
I0
sS'getArchiveComment'
p116
I0
sS'getCommentName'
p117
I0
sS'getCommentIndex'
p118
I0
sS'renameName'
p119
I0
sS'getFromName'
p120
I0
sS'statIndex'
p121
I0
sS'getNameIndex'
p122
I0
sS'addFile'
p123
I0
sS'extractTo'
p124
I0
sS'unchangeArchive'
p125
I0
sS'addGlob'
p126
I0
sS'locateName'
p127
I0
sS'deleteName'
p128
I0
sS'statName'
p129
I0
sS'getFromIndex'
p130
I0
ssS'DOMXPath'
p131
(dp132
S'query'
p133
I0
sS'registerPhpFunctions'
p134
I0
sS'registerNamespace'
p135
I0
sS'evaluate'
p136
I0
ssS'DOMAttr'
p137
(dp138
S'isId+'
p139
I1
sS'isId'
p140
I0
ssS'finfo'
p141
(dp142
S'file+'
p143
I1
sS'set_flags'
p144
I1
ssS'DOMNameList'
p145
(dp146
S'getName'
p147
I0
sS'getNamespaceURI'
p148
I0
ssS'DOMNode'
p149
(dp150
S'normalize'
p151
I0
sS'appendChild'
p152
I1
sS'lookupPrefix'
p153
I1
sS'getFeature'
p154
I0
sS'hasAttributes'
p155
I0
sS'setUserData'
p156
I0
sS'isSupported'
p157
I2
sS'getUserData'
p158
I0
sS'isSameNode'
p159
I1
sS'isDefaultNamespace'
p160
I1
sS'cloneNode'
p161
I0
sS'lookupNamespaceUri'
p162
I1
sS'compareDocumentPosition'
p163
I0
sS'removeChild'
p164
I1
sS'hasChildNodes'
p165
I0
sS'replaceChild'
p166
I2
sS'insertBefore+'
p167
I1
sS'isEqualNode'
p168
I0
ss.