(dp0
S'ZipArchive'
p1
(dp2
S'unchangeName'
p3
I0
sS'unchangeIndex'
p4
I0
sS'addPattern'
p5
I0
sS'addEmptyDir'
p6
I0
sS'getStatusString'
p7
I0
sS'close'
p8
I0
sS'open'
p9
I0
sS'setArchiveComment'
p10
I0
sS'setCommentIndex'
p11
I0
sS'getStream'
p12
I0
sS'renameIndex'
p13
I0
sS'setCommentName'
p14
I0
sS'unchangeAll'
p15
I0
sS'deleteIndex'
p16
I0
sS'addFromString'
p17
I0
sS'getArchiveComment'
p18
I0
sS'getCommentName'
p19
I0
sS'getCommentIndex'
p20
I0
sS'renameName'
p21
I0
sS'getFromName'
p22
I0
sS'statIndex'
p23
I0
sS'getNameIndex'
p24
I0
sS'addFile'
p25
I0
sS'extractTo'
p26
I0
sS'unchangeArchive'
p27
I0
sS'addGlob'
p28
I0
sS'locateName'
p29
I0
sS'deleteName'
p30
I0
sS'statName'
p31
I0
sS'getFromIndex'
p32
I0
ss.